GAS LISTING /tmp/ccVh8ueE.s 			page 1


   1              		.file	"escrita.c"
   2              		.text
   3              	.Ltext0:
   4              		.section	.rodata
   5              	.LC0:
   6 0000 56616C6F 		.string	"Valor do limiar: %d\n"
   6      7220646F 
   6      206C696D 
   6      6961723A 
   6      2025640A 
   7              		.text
   8              		.globl	threshold
   9              		.type	threshold, @function
  10              	threshold:
  11              	.LFB2:
  12              		.file 1 "./pdi/source/escrita.c"
   1:./pdi/source/escrita.c **** #include "../headers/cabecalho.h"
   2:./pdi/source/escrita.c **** 
   3:./pdi/source/escrita.c **** void threshold (struct pixel **matriz, unsigned char *mapa, struct bloco *block, char *arquivo) {
  13              		.loc 1 3 0
  14              		.cfi_startproc
  15 0000 55       		pushq	%rbp
  16              		.cfi_def_cfa_offset 16
  17              		.cfi_offset 6, -16
  18 0001 4889E5   		movq	%rsp, %rbp
  19              		.cfi_def_cfa_register 6
  20 0004 4883EC30 		subq	$48, %rsp
  21 0008 48897DE8 		movq	%rdi, -24(%rbp)
  22 000c 488975E0 		movq	%rsi, -32(%rbp)
  23 0010 488955D8 		movq	%rdx, -40(%rbp)
  24 0014 48894DD0 		movq	%rcx, -48(%rbp)
   4:./pdi/source/escrita.c **** 	limiar=10;
  25              		.loc 1 4 0
  26 0018 C7050000 		movl	$10, limiar(%rip)
  26      00000A00 
  26      0000
   5:./pdi/source/escrita.c **** 	unsigned char *prototipo;
   6:./pdi/source/escrita.c ****         prototipo = malloc(altura*largura*2);
  27              		.loc 1 6 0
  28 0022 BF006009 		movl	$614400, %edi
  28      00
  29 0027 E8000000 		call	malloc
  29      00
  30 002c 488945F8 		movq	%rax, -8(%rbp)
   7:./pdi/source/escrita.c **** 	alocate(matriz,mapa);
  31              		.loc 1 7 0
  32 0030 488B55E0 		movq	-32(%rbp), %rdx
  33 0034 488B45E8 		movq	-24(%rbp), %rax
  34 0038 4889D6   		movq	%rdx, %rsi
  35 003b 4889C7   		movq	%rax, %rdi
  36 003e E8000000 		call	alocate
  36      00
   8:./pdi/source/escrita.c **** 	
   9:./pdi/source/escrita.c **** 	/*
  10:./pdi/source/escrita.c **** 	array_bloco(block, matriz);
  11:./pdi/source/escrita.c **** 	generate_grad(matriz, block);	
  12:./pdi/source/escrita.c **** 	generate_prox(matriz);
GAS LISTING /tmp/ccVh8ueE.s 			page 2


  13:./pdi/source/escrita.c **** 	shrink(matriz, 4);
  14:./pdi/source/escrita.c **** 	generate_prox(matriz);
  15:./pdi/source/escrita.c **** 	swell(matriz, 6);
  16:./pdi/source/escrita.c **** 	
  17:./pdi/source/escrita.c **** 	detect_circle(matriz);
  18:./pdi/source/escrita.c **** 	generate_proxcircle(matriz);
  19:./pdi/source/escrita.c **** 	shrink_circle(matriz, 5);
  20:./pdi/source/escrita.c **** 	generate_proxcircle(matriz);
  21:./pdi/source/escrita.c **** 	        
  22:./pdi/source/escrita.c **** 	struct coordenadas_size aux = detect_regiao(matriz);
  23:./pdi/source/escrita.c **** 	struct coordenadas *bolinhas = aux.coord;
  24:./pdi/source/escrita.c **** 	aux.coord = NULL;
  25:./pdi/source/escrita.c **** 	int nbolinhas = aux.size;
  26:./pdi/source/escrita.c **** 	struct coordenadas *hashtag = generate_hashtag(bolinhas, nbolinhas);
  27:./pdi/source/escrita.c **** 
  28:./pdi/source/escrita.c **** 	for (int j = 0; j < nbolinhas; j++){
  29:./pdi/source/escrita.c **** 		printf("Bolinha: %d Centro X : %d Centro Y: %d\n", j+1, bolinhas[j].X, bolinhas[j].Y);
  30:./pdi/source/escrita.c **** 	}
  31:./pdi/source/escrita.c **** 	for (int i = 0; i < 9; i++) printf("%d) X: %d Y: %d\n", i, hashtag[i].X, hashtag[i].Y);
  32:./pdi/source/escrita.c **** 	*/
  33:./pdi/source/escrita.c **** 
  34:./pdi/source/escrita.c **** 	AI(matriz);
  37              		.loc 1 34 0
  38 0043 488B45E8 		movq	-24(%rbp), %rax
  39 0047 4889C7   		movq	%rax, %rdi
  40 004a E8000000 		call	AI
  40      00
  35:./pdi/source/escrita.c **** 	
  36:./pdi/source/escrita.c **** 	//free(bolinhas);
  37:./pdi/source/escrita.c **** 	//free(hashtag);
  38:./pdi/source/escrita.c **** 	dealocate(matriz, prototipo);
  41              		.loc 1 38 0
  42 004f 488B55F8 		movq	-8(%rbp), %rdx
  43 0053 488B45E8 		movq	-24(%rbp), %rax
  44 0057 4889D6   		movq	%rdx, %rsi
  45 005a 4889C7   		movq	%rax, %rdi
  46 005d E8000000 		call	dealocate
  46      00
  39:./pdi/source/escrita.c **** 	arquivo[0]='0' + 0; //Cheat de converter o inteiro para char
  47              		.loc 1 39 0
  48 0062 488B45D0 		movq	-48(%rbp), %rax
  49 0066 C60030   		movb	$48, (%rax)
  40:./pdi/source/escrita.c **** 	escrita(arquivo, prototipo);
  50              		.loc 1 40 0
  51 0069 488B55F8 		movq	-8(%rbp), %rdx
  52 006d 488B45D0 		movq	-48(%rbp), %rax
  53 0071 4889D6   		movq	%rdx, %rsi
  54 0074 4889C7   		movq	%rax, %rdi
  55 0077 E8000000 		call	escrita
  55      00
  41:./pdi/source/escrita.c **** 	printf("Valor do limiar: %d\n", limiar);
  56              		.loc 1 41 0
  57 007c 8B050000 		movl	limiar(%rip), %eax
  57      0000
  58 0082 89C6     		movl	%eax, %esi
  59 0084 BF000000 		movl	$.LC0, %edi
  59      00
GAS LISTING /tmp/ccVh8ueE.s 			page 3


  60 0089 B8000000 		movl	$0, %eax
  60      00
  61 008e E8000000 		call	printf
  61      00
  42:./pdi/source/escrita.c **** }
  62              		.loc 1 42 0
  63 0093 C9       		leave
  64              		.cfi_def_cfa 7, 8
  65 0094 C3       		ret
  66              		.cfi_endproc
  67              	.LFE2:
  68              		.size	threshold, .-threshold
  69              		.globl	AI
  70              		.type	AI, @function
  71              	AI:
  72              	.LFB3:
  43:./pdi/source/escrita.c **** 
  44:./pdi/source/escrita.c **** 
  45:./pdi/source/escrita.c **** void AI(struct pixel **matriz)
  46:./pdi/source/escrita.c **** {
  73              		.loc 1 46 0
  74              		.cfi_startproc
  75 0095 55       		pushq	%rbp
  76              		.cfi_def_cfa_offset 16
  77              		.cfi_offset 6, -16
  78 0096 4889E5   		movq	%rsp, %rbp
  79              		.cfi_def_cfa_register 6
  80 0099 4883EC30 		subq	$48, %rsp
  81 009d 48897DD8 		movq	%rdi, -40(%rbp)
  47:./pdi/source/escrita.c **** 	    
  48:./pdi/source/escrita.c **** 	struct pixel pixteam1; //verde
  49:./pdi/source/escrita.c **** 	pixteam1.luma = 182;
  82              		.loc 1 49 0
  83 00a1 C645E0B6 		movb	$-74, -32(%rbp)
  50:./pdi/source/escrita.c **** 	pixteam1.cb = 104;
  84              		.loc 1 50 0
  85 00a5 C645E168 		movb	$104, -31(%rbp)
  51:./pdi/source/escrita.c **** 	pixteam1.cr = 115;
  86              		.loc 1 51 0
  87 00a9 C645E273 		movb	$115, -30(%rbp)
  52:./pdi/source/escrita.c **** 	struct pixel pixteam2; //vermelho
  53:./pdi/source/escrita.c **** 	pixteam2.luma = 144;
  88              		.loc 1 53 0
  89 00ad C645F090 		movb	$-112, -16(%rbp)
  54:./pdi/source/escrita.c **** 	pixteam2.cb = 122;
  90              		.loc 1 54 0
  91 00b1 C645F17A 		movb	$122, -15(%rbp)
  55:./pdi/source/escrita.c **** 	pixteam2.cr = 159;
  92              		.loc 1 55 0
  93 00b5 C645F29F 		movb	$-97, -14(%rbp)
  56:./pdi/source/escrita.c **** 
  57:./pdi/source/escrita.c **** 	generate_teams(matriz, pixteam1, pixteam2);
  94              		.loc 1 57 0
  95 00b9 488B55F0 		movq	-16(%rbp), %rdx
  96 00bd 488B4DE0 		movq	-32(%rbp), %rcx
  97 00c1 488B45D8 		movq	-40(%rbp), %rax
  98 00c5 4889CE   		movq	%rcx, %rsi
GAS LISTING /tmp/ccVh8ueE.s 			page 4


  99 00c8 4889C7   		movq	%rax, %rdi
 100 00cb E8000000 		call	generate_teams
 100      00
  58:./pdi/source/escrita.c **** 	detect_regiaoteam(matriz);
 101              		.loc 1 58 0
 102 00d0 488B45D8 		movq	-40(%rbp), %rax
 103 00d4 4889C7   		movq	%rax, %rdi
 104 00d7 E8000000 		call	detect_regiaoteam
 104      00
  59:./pdi/source/escrita.c **** }
 105              		.loc 1 59 0
 106 00dc C9       		leave
 107              		.cfi_def_cfa 7, 8
 108 00dd C3       		ret
 109              		.cfi_endproc
 110              	.LFE3:
 111              		.size	AI, .-AI
 112              		.globl	generate_teams
 113              		.type	generate_teams, @function
 114              	generate_teams:
 115              	.LFB4:
  60:./pdi/source/escrita.c **** 
  61:./pdi/source/escrita.c **** void generate_teams(struct pixel **matriz, struct pixel team1, struct pixel team2)
  62:./pdi/source/escrita.c **** {
 116              		.loc 1 62 0
 117              		.cfi_startproc
 118 00de 55       		pushq	%rbp
 119              		.cfi_def_cfa_offset 16
 120              		.cfi_offset 6, -16
 121 00df 4889E5   		movq	%rsp, %rbp
 122              		.cfi_def_cfa_register 6
 123 00e2 4883EC40 		subq	$64, %rsp
 124 00e6 48897DD8 		movq	%rdi, -40(%rbp)
 125 00ea 488975D0 		movq	%rsi, -48(%rbp)
 126 00ee 488955C0 		movq	%rdx, -64(%rbp)
  63:./pdi/source/escrita.c **** 	struct pixel tmp;
  64:./pdi/source/escrita.c **** 	int i,j;
  65:./pdi/source/escrita.c **** 	for (i = altmin; i < altmax; i++) {
 127              		.loc 1 65 0
 128 00f2 C745E86E 		movl	$110, -24(%rbp)
 128      000000
 129 00f9 E9E40000 		jmp	.L4
 129      00
 130              	.L9:
  66:./pdi/source/escrita.c **** 		for (j = largmin; j < largmax; j++) {
 131              		.loc 1 66 0
 132 00fe C745EC54 		movl	$340, -20(%rbp)
 132      010000
 133 0105 E9C70000 		jmp	.L5
 133      00
 134              	.L8:
  67:./pdi/source/escrita.c **** 			tmp = lumcbcr_medium(matriz, i, j, 8);
 135              		.loc 1 67 0
 136 010a 8B55EC   		movl	-20(%rbp), %edx
 137 010d 8B75E8   		movl	-24(%rbp), %esi
 138 0110 488B45D8 		movq	-40(%rbp), %rax
 139 0114 B9080000 		movl	$8, %ecx
GAS LISTING /tmp/ccVh8ueE.s 			page 5


 139      00
 140 0119 4889C7   		movq	%rax, %rdi
 141 011c E8000000 		call	lumcbcr_medium
 141      00
 142 0121 488945F0 		movq	%rax, -16(%rbp)
  68:./pdi/source/escrita.c **** 			matriz[i][j].team = 0;
 143              		.loc 1 68 0
 144 0125 8B45E8   		movl	-24(%rbp), %eax
 145 0128 4898     		cltq
 146 012a 488D14C5 		leaq	0(,%rax,8), %rdx
 146      00000000 
 147 0132 488B45D8 		movq	-40(%rbp), %rax
 148 0136 4801D0   		addq	%rdx, %rax
 149 0139 488B00   		movq	(%rax), %rax
 150 013c 8B55EC   		movl	-20(%rbp), %edx
 151 013f 4863D2   		movslq	%edx, %rdx
 152 0142 48C1E203 		salq	$3, %rdx
 153 0146 4801D0   		addq	%rdx, %rax
 154 0149 C6400700 		movb	$0, 7(%rax)
  69:./pdi/source/escrita.c **** 			if (pix_erro(tmp, team1) < 20) matriz[i][j].team = 1;
 155              		.loc 1 69 0
 156 014d 488B55D0 		movq	-48(%rbp), %rdx
 157 0151 488B45F0 		movq	-16(%rbp), %rax
 158 0155 4889D6   		movq	%rdx, %rsi
 159 0158 4889C7   		movq	%rax, %rdi
 160 015b E8000000 		call	pix_erro
 160      00
 161 0160 83F813   		cmpl	$19, %eax
 162 0163 7F28     		jg	.L6
 163              		.loc 1 69 0 is_stmt 0 discriminator 1
 164 0165 8B45E8   		movl	-24(%rbp), %eax
 165 0168 4898     		cltq
 166 016a 488D14C5 		leaq	0(,%rax,8), %rdx
 166      00000000 
 167 0172 488B45D8 		movq	-40(%rbp), %rax
 168 0176 4801D0   		addq	%rdx, %rax
 169 0179 488B00   		movq	(%rax), %rax
 170 017c 8B55EC   		movl	-20(%rbp), %edx
 171 017f 4863D2   		movslq	%edx, %rdx
 172 0182 48C1E203 		salq	$3, %rdx
 173 0186 4801D0   		addq	%rdx, %rax
 174 0189 C6400701 		movb	$1, 7(%rax)
 175              	.L6:
  70:./pdi/source/escrita.c **** 			if (pix_erro(tmp, team2) < 20) matriz[i][j].team = 2;
 176              		.loc 1 70 0 is_stmt 1
 177 018d 488B55C0 		movq	-64(%rbp), %rdx
 178 0191 488B45F0 		movq	-16(%rbp), %rax
 179 0195 4889D6   		movq	%rdx, %rsi
 180 0198 4889C7   		movq	%rax, %rdi
 181 019b E8000000 		call	pix_erro
 181      00
 182 01a0 83F813   		cmpl	$19, %eax
 183 01a3 7F28     		jg	.L7
 184              		.loc 1 70 0 is_stmt 0 discriminator 1
 185 01a5 8B45E8   		movl	-24(%rbp), %eax
 186 01a8 4898     		cltq
 187 01aa 488D14C5 		leaq	0(,%rax,8), %rdx
GAS LISTING /tmp/ccVh8ueE.s 			page 6


 187      00000000 
 188 01b2 488B45D8 		movq	-40(%rbp), %rax
 189 01b6 4801D0   		addq	%rdx, %rax
 190 01b9 488B00   		movq	(%rax), %rax
 191 01bc 8B55EC   		movl	-20(%rbp), %edx
 192 01bf 4863D2   		movslq	%edx, %rdx
 193 01c2 48C1E203 		salq	$3, %rdx
 194 01c6 4801D0   		addq	%rdx, %rax
 195 01c9 C6400702 		movb	$2, 7(%rax)
 196              	.L7:
  66:./pdi/source/escrita.c **** 			tmp = lumcbcr_medium(matriz, i, j, 8);
 197              		.loc 1 66 0 is_stmt 1 discriminator 2
 198 01cd 8345EC01 		addl	$1, -20(%rbp)
 199              	.L5:
  66:./pdi/source/escrita.c **** 			tmp = lumcbcr_medium(matriz, i, j, 8);
 200              		.loc 1 66 0 is_stmt 0 discriminator 1
 201 01d1 817DEC20 		cmpl	$544, -20(%rbp)
 201      020000
 202 01d8 0F8E2CFF 		jle	.L8
 202      FFFF
  65:./pdi/source/escrita.c **** 		for (j = largmin; j < largmax; j++) {
 203              		.loc 1 65 0 is_stmt 1 discriminator 2
 204 01de 8345E801 		addl	$1, -24(%rbp)
 205              	.L4:
  65:./pdi/source/escrita.c **** 		for (j = largmin; j < largmax; j++) {
 206              		.loc 1 65 0 is_stmt 0 discriminator 1
 207 01e2 817DE86B 		cmpl	$363, -24(%rbp)
 207      010000
 208 01e9 0F8E0FFF 		jle	.L9
 208      FFFF
  71:./pdi/source/escrita.c **** 		}
  72:./pdi/source/escrita.c **** 	}
  73:./pdi/source/escrita.c **** 
  74:./pdi/source/escrita.c **** 	for (i = altmin; i < altmax; i++) {
 209              		.loc 1 74 0 is_stmt 1
 210 01ef C745E86E 		movl	$110, -24(%rbp)
 210      000000
 211 01f6 E9FD0100 		jmp	.L10
 211      00
 212              	.L15:
  75:./pdi/source/escrita.c **** 		for (j = largmin; j < largmax; j++) {
 213              		.loc 1 75 0
 214 01fb C745EC54 		movl	$340, -20(%rbp)
 214      010000
 215 0202 E9E00100 		jmp	.L11
 215      00
 216              	.L14:
  76:./pdi/source/escrita.c **** 			matriz[i][j].luma = 0;
 217              		.loc 1 76 0
 218 0207 8B45E8   		movl	-24(%rbp), %eax
 219 020a 4898     		cltq
 220 020c 488D14C5 		leaq	0(,%rax,8), %rdx
 220      00000000 
 221 0214 488B45D8 		movq	-40(%rbp), %rax
 222 0218 4801D0   		addq	%rdx, %rax
 223 021b 488B00   		movq	(%rax), %rax
 224 021e 8B55EC   		movl	-20(%rbp), %edx
GAS LISTING /tmp/ccVh8ueE.s 			page 7


 225 0221 4863D2   		movslq	%edx, %rdx
 226 0224 48C1E203 		salq	$3, %rdx
 227 0228 4801D0   		addq	%rdx, %rax
 228 022b C60000   		movb	$0, (%rax)
  77:./pdi/source/escrita.c **** 			matriz[i][j].cb = 128;
 229              		.loc 1 77 0
 230 022e 8B45E8   		movl	-24(%rbp), %eax
 231 0231 4898     		cltq
 232 0233 488D14C5 		leaq	0(,%rax,8), %rdx
 232      00000000 
 233 023b 488B45D8 		movq	-40(%rbp), %rax
 234 023f 4801D0   		addq	%rdx, %rax
 235 0242 488B00   		movq	(%rax), %rax
 236 0245 8B55EC   		movl	-20(%rbp), %edx
 237 0248 4863D2   		movslq	%edx, %rdx
 238 024b 48C1E203 		salq	$3, %rdx
 239 024f 4801D0   		addq	%rdx, %rax
 240 0252 C6400180 		movb	$-128, 1(%rax)
  78:./pdi/source/escrita.c **** 			matriz[i][j].cr = 128;
 241              		.loc 1 78 0
 242 0256 8B45E8   		movl	-24(%rbp), %eax
 243 0259 4898     		cltq
 244 025b 488D14C5 		leaq	0(,%rax,8), %rdx
 244      00000000 
 245 0263 488B45D8 		movq	-40(%rbp), %rax
 246 0267 4801D0   		addq	%rdx, %rax
 247 026a 488B00   		movq	(%rax), %rax
 248 026d 8B55EC   		movl	-20(%rbp), %edx
 249 0270 4863D2   		movslq	%edx, %rdx
 250 0273 48C1E203 		salq	$3, %rdx
 251 0277 4801D0   		addq	%rdx, %rax
 252 027a C6400280 		movb	$-128, 2(%rax)
  79:./pdi/source/escrita.c **** 			if (matriz[i][j].team == 1) {
 253              		.loc 1 79 0
 254 027e 8B45E8   		movl	-24(%rbp), %eax
 255 0281 4898     		cltq
 256 0283 488D14C5 		leaq	0(,%rax,8), %rdx
 256      00000000 
 257 028b 488B45D8 		movq	-40(%rbp), %rax
 258 028f 4801D0   		addq	%rdx, %rax
 259 0292 488B00   		movq	(%rax), %rax
 260 0295 8B55EC   		movl	-20(%rbp), %edx
 261 0298 4863D2   		movslq	%edx, %rdx
 262 029b 48C1E203 		salq	$3, %rdx
 263 029f 4801D0   		addq	%rdx, %rax
 264 02a2 0FB64007 		movzbl	7(%rax), %eax
 265 02a6 3C01     		cmpb	$1, %al
 266 02a8 0F858500 		jne	.L12
 266      0000
  80:./pdi/source/escrita.c **** 				matriz[i][j].luma = team1.luma;
 267              		.loc 1 80 0
 268 02ae 8B45E8   		movl	-24(%rbp), %eax
 269 02b1 4898     		cltq
 270 02b3 488D14C5 		leaq	0(,%rax,8), %rdx
 270      00000000 
 271 02bb 488B45D8 		movq	-40(%rbp), %rax
 272 02bf 4801D0   		addq	%rdx, %rax
GAS LISTING /tmp/ccVh8ueE.s 			page 8


 273 02c2 488B00   		movq	(%rax), %rax
 274 02c5 8B55EC   		movl	-20(%rbp), %edx
 275 02c8 4863D2   		movslq	%edx, %rdx
 276 02cb 48C1E203 		salq	$3, %rdx
 277 02cf 4801C2   		addq	%rax, %rdx
 278 02d2 0FB645D0 		movzbl	-48(%rbp), %eax
 279 02d6 8802     		movb	%al, (%rdx)
  81:./pdi/source/escrita.c **** 				matriz[i][j].cb = team1.cb;
 280              		.loc 1 81 0
 281 02d8 8B45E8   		movl	-24(%rbp), %eax
 282 02db 4898     		cltq
 283 02dd 488D14C5 		leaq	0(,%rax,8), %rdx
 283      00000000 
 284 02e5 488B45D8 		movq	-40(%rbp), %rax
 285 02e9 4801D0   		addq	%rdx, %rax
 286 02ec 488B00   		movq	(%rax), %rax
 287 02ef 8B55EC   		movl	-20(%rbp), %edx
 288 02f2 4863D2   		movslq	%edx, %rdx
 289 02f5 48C1E203 		salq	$3, %rdx
 290 02f9 4801C2   		addq	%rax, %rdx
 291 02fc 0FB645D1 		movzbl	-47(%rbp), %eax
 292 0300 884201   		movb	%al, 1(%rdx)
  82:./pdi/source/escrita.c **** 				matriz[i][j].cr = team1.cr;
 293              		.loc 1 82 0
 294 0303 8B45E8   		movl	-24(%rbp), %eax
 295 0306 4898     		cltq
 296 0308 488D14C5 		leaq	0(,%rax,8), %rdx
 296      00000000 
 297 0310 488B45D8 		movq	-40(%rbp), %rax
 298 0314 4801D0   		addq	%rdx, %rax
 299 0317 488B00   		movq	(%rax), %rax
 300 031a 8B55EC   		movl	-20(%rbp), %edx
 301 031d 4863D2   		movslq	%edx, %rdx
 302 0320 48C1E203 		salq	$3, %rdx
 303 0324 4801C2   		addq	%rax, %rdx
 304 0327 0FB645D2 		movzbl	-46(%rbp), %eax
 305 032b 884202   		movb	%al, 2(%rdx)
 306 032e E9B00000 		jmp	.L13
 306      00
 307              	.L12:
  83:./pdi/source/escrita.c **** 			} else if (matriz[i][j].team == 2) {
 308              		.loc 1 83 0
 309 0333 8B45E8   		movl	-24(%rbp), %eax
 310 0336 4898     		cltq
 311 0338 488D14C5 		leaq	0(,%rax,8), %rdx
 311      00000000 
 312 0340 488B45D8 		movq	-40(%rbp), %rax
 313 0344 4801D0   		addq	%rdx, %rax
 314 0347 488B00   		movq	(%rax), %rax
 315 034a 8B55EC   		movl	-20(%rbp), %edx
 316 034d 4863D2   		movslq	%edx, %rdx
 317 0350 48C1E203 		salq	$3, %rdx
 318 0354 4801D0   		addq	%rdx, %rax
 319 0357 0FB64007 		movzbl	7(%rax), %eax
 320 035b 3C02     		cmpb	$2, %al
 321 035d 0F858000 		jne	.L13
 321      0000
GAS LISTING /tmp/ccVh8ueE.s 			page 9


  84:./pdi/source/escrita.c **** 				matriz[i][j].luma = team2.luma;
 322              		.loc 1 84 0
 323 0363 8B45E8   		movl	-24(%rbp), %eax
 324 0366 4898     		cltq
 325 0368 488D14C5 		leaq	0(,%rax,8), %rdx
 325      00000000 
 326 0370 488B45D8 		movq	-40(%rbp), %rax
 327 0374 4801D0   		addq	%rdx, %rax
 328 0377 488B00   		movq	(%rax), %rax
 329 037a 8B55EC   		movl	-20(%rbp), %edx
 330 037d 4863D2   		movslq	%edx, %rdx
 331 0380 48C1E203 		salq	$3, %rdx
 332 0384 4801C2   		addq	%rax, %rdx
 333 0387 0FB645C0 		movzbl	-64(%rbp), %eax
 334 038b 8802     		movb	%al, (%rdx)
  85:./pdi/source/escrita.c **** 				matriz[i][j].cb = team2.cb;
 335              		.loc 1 85 0
 336 038d 8B45E8   		movl	-24(%rbp), %eax
 337 0390 4898     		cltq
 338 0392 488D14C5 		leaq	0(,%rax,8), %rdx
 338      00000000 
 339 039a 488B45D8 		movq	-40(%rbp), %rax
 340 039e 4801D0   		addq	%rdx, %rax
 341 03a1 488B00   		movq	(%rax), %rax
 342 03a4 8B55EC   		movl	-20(%rbp), %edx
 343 03a7 4863D2   		movslq	%edx, %rdx
 344 03aa 48C1E203 		salq	$3, %rdx
 345 03ae 4801C2   		addq	%rax, %rdx
 346 03b1 0FB645C1 		movzbl	-63(%rbp), %eax
 347 03b5 884201   		movb	%al, 1(%rdx)
  86:./pdi/source/escrita.c **** 				matriz[i][j].cr = team2.cr;
 348              		.loc 1 86 0
 349 03b8 8B45E8   		movl	-24(%rbp), %eax
 350 03bb 4898     		cltq
 351 03bd 488D14C5 		leaq	0(,%rax,8), %rdx
 351      00000000 
 352 03c5 488B45D8 		movq	-40(%rbp), %rax
 353 03c9 4801D0   		addq	%rdx, %rax
 354 03cc 488B00   		movq	(%rax), %rax
 355 03cf 8B55EC   		movl	-20(%rbp), %edx
 356 03d2 4863D2   		movslq	%edx, %rdx
 357 03d5 48C1E203 		salq	$3, %rdx
 358 03d9 4801C2   		addq	%rax, %rdx
 359 03dc 0FB645C2 		movzbl	-62(%rbp), %eax
 360 03e0 884202   		movb	%al, 2(%rdx)
 361              	.L13:
  75:./pdi/source/escrita.c **** 			matriz[i][j].luma = 0;
 362              		.loc 1 75 0 discriminator 2
 363 03e3 8345EC01 		addl	$1, -20(%rbp)
 364              	.L11:
  75:./pdi/source/escrita.c **** 			matriz[i][j].luma = 0;
 365              		.loc 1 75 0 is_stmt 0 discriminator 1
 366 03e7 817DEC20 		cmpl	$544, -20(%rbp)
 366      020000
 367 03ee 0F8E13FE 		jle	.L14
 367      FFFF
  74:./pdi/source/escrita.c **** 		for (j = largmin; j < largmax; j++) {
GAS LISTING /tmp/ccVh8ueE.s 			page 10


 368              		.loc 1 74 0 is_stmt 1 discriminator 2
 369 03f4 8345E801 		addl	$1, -24(%rbp)
 370              	.L10:
  74:./pdi/source/escrita.c **** 		for (j = largmin; j < largmax; j++) {
 371              		.loc 1 74 0 is_stmt 0 discriminator 1
 372 03f8 817DE86B 		cmpl	$363, -24(%rbp)
 372      010000
 373 03ff 0F8EF6FD 		jle	.L15
 373      FFFF
  87:./pdi/source/escrita.c **** 			}
  88:./pdi/source/escrita.c **** 		}
  89:./pdi/source/escrita.c **** 	}
  90:./pdi/source/escrita.c **** }
 374              		.loc 1 90 0 is_stmt 1
 375 0405 C9       		leave
 376              		.cfi_def_cfa 7, 8
 377 0406 C3       		ret
 378              		.cfi_endproc
 379              	.LFE4:
 380              		.size	generate_teams, .-generate_teams
 381              		.globl	pix_erro
 382              		.type	pix_erro, @function
 383              	pix_erro:
 384              	.LFB5:
  91:./pdi/source/escrita.c **** 
  92:./pdi/source/escrita.c **** int pix_erro(struct pixel original, struct pixel compare){
 385              		.loc 1 92 0
 386              		.cfi_startproc
 387 0407 55       		pushq	%rbp
 388              		.cfi_def_cfa_offset 16
 389              		.cfi_offset 6, -16
 390 0408 4889E5   		movq	%rsp, %rbp
 391              		.cfi_def_cfa_register 6
 392 040b 48897DE0 		movq	%rdi, -32(%rbp)
 393 040f 488975D0 		movq	%rsi, -48(%rbp)
  93:./pdi/source/escrita.c **** 	int erro = 0;
 394              		.loc 1 93 0
 395 0413 C745FC00 		movl	$0, -4(%rbp)
 395      000000
  94:./pdi/source/escrita.c **** 	erro = abs(original.luma - compare.luma) + 
 396              		.loc 1 94 0
 397 041a 0FB645E0 		movzbl	-32(%rbp), %eax
 398 041e 0FB6D0   		movzbl	%al, %edx
 399 0421 0FB645D0 		movzbl	-48(%rbp), %eax
 400 0425 0FB6C0   		movzbl	%al, %eax
 401 0428 29C2     		subl	%eax, %edx
 402 042a 89D0     		movl	%edx, %eax
 403 042c C1F81F   		sarl	$31, %eax
 404 042f 31C2     		xorl	%eax, %edx
 405 0431 29C2     		subl	%eax, %edx
  95:./pdi/source/escrita.c **** 		abs(original.cb - compare.cb) +
 406              		.loc 1 95 0
 407 0433 0FB645E1 		movzbl	-31(%rbp), %eax
 408 0437 0FB6C8   		movzbl	%al, %ecx
 409 043a 0FB645D1 		movzbl	-47(%rbp), %eax
 410 043e 0FB6C0   		movzbl	%al, %eax
 411 0441 29C1     		subl	%eax, %ecx
GAS LISTING /tmp/ccVh8ueE.s 			page 11


 412 0443 89C8     		movl	%ecx, %eax
 413 0445 89C1     		movl	%eax, %ecx
 414 0447 C1F91F   		sarl	$31, %ecx
 415 044a 31C8     		xorl	%ecx, %eax
 416 044c 29C8     		subl	%ecx, %eax
  94:./pdi/source/escrita.c **** 	erro = abs(original.luma - compare.luma) + 
 417              		.loc 1 94 0
 418 044e 8D0C02   		leal	(%rdx,%rax), %ecx
  96:./pdi/source/escrita.c **** 		abs(original.cr - compare.cr);
 419              		.loc 1 96 0
 420 0451 0FB645E2 		movzbl	-30(%rbp), %eax
 421 0455 0FB6D0   		movzbl	%al, %edx
 422 0458 0FB645D2 		movzbl	-46(%rbp), %eax
 423 045c 0FB6C0   		movzbl	%al, %eax
 424 045f 29C2     		subl	%eax, %edx
 425 0461 89D0     		movl	%edx, %eax
 426 0463 99       		cltd
 427 0464 31D0     		xorl	%edx, %eax
 428 0466 29D0     		subl	%edx, %eax
  94:./pdi/source/escrita.c **** 	erro = abs(original.luma - compare.luma) + 
 429              		.loc 1 94 0
 430 0468 01C8     		addl	%ecx, %eax
 431 046a 8945FC   		movl	%eax, -4(%rbp)
  97:./pdi/source/escrita.c **** 	return erro;
 432              		.loc 1 97 0
 433 046d 8B45FC   		movl	-4(%rbp), %eax
  98:./pdi/source/escrita.c **** }
 434              		.loc 1 98 0
 435 0470 5D       		popq	%rbp
 436              		.cfi_def_cfa 7, 8
 437 0471 C3       		ret
 438              		.cfi_endproc
 439              	.LFE5:
 440              		.size	pix_erro, .-pix_erro
 441              		.section	.rodata
 442              	.LC1:
 443 0015 6F70656E 		.string	"open"
 443      00
 444              	.LC2:
 445 001a 4572726F 		.string	"Erro ao escrever"
 445      20616F20 
 445      65736372 
 445      65766572 
 445      00
 446              		.text
 447              		.globl	escrita
 448              		.type	escrita, @function
 449              	escrita:
 450              	.LFB6:
  99:./pdi/source/escrita.c **** 
 100:./pdi/source/escrita.c **** 
 101:./pdi/source/escrita.c **** 
 102:./pdi/source/escrita.c **** void escrita(char *arquivo, unsigned char* matriz_temp) {
 451              		.loc 1 102 0
 452              		.cfi_startproc
 453 0472 55       		pushq	%rbp
 454              		.cfi_def_cfa_offset 16
GAS LISTING /tmp/ccVh8ueE.s 			page 12


 455              		.cfi_offset 6, -16
 456 0473 4889E5   		movq	%rsp, %rbp
 457              		.cfi_def_cfa_register 6
 458 0476 4883EC20 		subq	$32, %rsp
 459 047a 48897DE8 		movq	%rdi, -24(%rbp)
 460 047e 488975E0 		movq	%rsi, -32(%rbp)
 103:./pdi/source/escrita.c **** 	int jpgfile;
 104:./pdi/source/escrita.c ****         if((jpgfile = open(arquivo, O_WRONLY | O_CREAT, 0660)) < 0){
 461              		.loc 1 104 0
 462 0482 488B45E8 		movq	-24(%rbp), %rax
 463 0486 BAB00100 		movl	$432, %edx
 463      00
 464 048b BE410000 		movl	$65, %esi
 464      00
 465 0490 4889C7   		movq	%rax, %rdi
 466 0493 B8000000 		movl	$0, %eax
 466      00
 467 0498 E8000000 		call	open
 467      00
 468 049d 8945FC   		movl	%eax, -4(%rbp)
 469 04a0 837DFC00 		cmpl	$0, -4(%rbp)
 470 04a4 7914     		jns	.L19
 105:./pdi/source/escrita.c ****             perror("open");
 471              		.loc 1 105 0
 472 04a6 BF000000 		movl	$.LC1, %edi
 472      00
 473 04ab E8000000 		call	perror
 473      00
 106:./pdi/source/escrita.c ****             exit(1);
 474              		.loc 1 106 0
 475 04b0 BF010000 		movl	$1, %edi
 475      00
 476 04b5 E8000000 		call	exit
 476      00
 477              	.L19:
 107:./pdi/source/escrita.c **** 
 108:./pdi/source/escrita.c ****         }
 109:./pdi/source/escrita.c **** 
 110:./pdi/source/escrita.c ****         if(write(jpgfile, matriz_temp, altura*largura*2) < 0);
 478              		.loc 1 110 0
 479 04ba 488B4DE0 		movq	-32(%rbp), %rcx
 480 04be 8B45FC   		movl	-4(%rbp), %eax
 481 04c1 BA006009 		movl	$614400, %edx
 481      00
 482 04c6 4889CE   		movq	%rcx, %rsi
 483 04c9 89C7     		movl	%eax, %edi
 484 04cb E8000000 		call	write
 484      00
 111:./pdi/source/escrita.c **** 		printf("Erro ao escrever\n");
 485              		.loc 1 111 0
 486 04d0 BF000000 		movl	$.LC2, %edi
 486      00
 487 04d5 E8000000 		call	puts
 487      00
 112:./pdi/source/escrita.c ****         close(jpgfile);
 488              		.loc 1 112 0
 489 04da 8B45FC   		movl	-4(%rbp), %eax
GAS LISTING /tmp/ccVh8ueE.s 			page 13


 490 04dd 89C7     		movl	%eax, %edi
 491 04df E8000000 		call	close
 491      00
 113:./pdi/source/escrita.c **** }
 492              		.loc 1 113 0
 493 04e4 C9       		leave
 494              		.cfi_def_cfa 7, 8
 495 04e5 C3       		ret
 496              		.cfi_endproc
 497              	.LFE6:
 498              		.size	escrita, .-escrita
 499              		.globl	print_ballcoord
 500              		.type	print_ballcoord, @function
 501              	print_ballcoord:
 502              	.LFB7:
 114:./pdi/source/escrita.c **** 
 115:./pdi/source/escrita.c **** struct CD *print_ballcoord(struct pixel **matriz) {
 503              		.loc 1 115 0
 504              		.cfi_startproc
 505 04e6 55       		pushq	%rbp
 506              		.cfi_def_cfa_offset 16
 507              		.cfi_offset 6, -16
 508 04e7 4889E5   		movq	%rsp, %rbp
 509              		.cfi_def_cfa_register 6
 510 04ea 4883EC40 		subq	$64, %rsp
 511 04ee 48897DC8 		movq	%rdi, -56(%rbp)
 116:./pdi/source/escrita.c **** 	
 117:./pdi/source/escrita.c **** 	struct CD *cds = malloc(sizeof(struct CD)*19);
 512              		.loc 1 117 0
 513 04f2 BF980000 		movl	$152, %edi
 513      00
 514 04f7 E8000000 		call	malloc
 514      00
 515 04fc 488945D8 		movq	%rax, -40(%rbp)
 118:./pdi/source/escrita.c **** 	struct coordenadas_size aux = detect_regiao(matriz);
 516              		.loc 1 118 0
 517 0500 488B45C8 		movq	-56(%rbp), %rax
 518 0504 4889C7   		movq	%rax, %rdi
 519 0507 E8000000 		call	detect_regiao
 519      00
 520 050c 488945F0 		movq	%rax, -16(%rbp)
 521 0510 488955F8 		movq	%rdx, -8(%rbp)
 119:./pdi/source/escrita.c ****         struct coordenadas *bolinhas = aux.coord;
 522              		.loc 1 119 0
 523 0514 488B45F0 		movq	-16(%rbp), %rax
 524 0518 488945E0 		movq	%rax, -32(%rbp)
 120:./pdi/source/escrita.c ****         aux.coord = NULL;
 525              		.loc 1 120 0
 526 051c 48C745F0 		movq	$0, -16(%rbp)
 526      00000000 
 121:./pdi/source/escrita.c ****         int nbolinhas = aux.size;
 527              		.loc 1 121 0
 528 0524 8B45F8   		movl	-8(%rbp), %eax
 529 0527 8945D4   		movl	%eax, -44(%rbp)
 122:./pdi/source/escrita.c ****         struct coordenadas *hashtag = generate_hashtag(bolinhas, nbolinhas);
 530              		.loc 1 122 0
 531 052a 8B55D4   		movl	-44(%rbp), %edx
GAS LISTING /tmp/ccVh8ueE.s 			page 14


 532 052d 488B45E0 		movq	-32(%rbp), %rax
 533 0531 89D6     		movl	%edx, %esi
 534 0533 4889C7   		movq	%rax, %rdi
 535 0536 E8000000 		call	generate_hashtag
 535      00
 536 053b 488945E8 		movq	%rax, -24(%rbp)
 123:./pdi/source/escrita.c ****         int i;
 124:./pdi/source/escrita.c **** 
 125:./pdi/source/escrita.c ****         for (i = 0; i < 3; i++) {
 537              		.loc 1 125 0
 538 053f C745D000 		movl	$0, -48(%rbp)
 538      000000
 539 0546 E9DC0100 		jmp	.L21
 539      00
 540              	.L22:
 126:./pdi/source/escrita.c ****                 cds[0 + 3*i].X = hashtag[6 + i].X;
 541              		.loc 1 126 0 discriminator 3
 542 054b 8B45D0   		movl	-48(%rbp), %eax
 543 054e 4863D0   		movslq	%eax, %rdx
 544 0551 4889D0   		movq	%rdx, %rax
 545 0554 4801C0   		addq	%rax, %rax
 546 0557 4801D0   		addq	%rdx, %rax
 547 055a 48C1E003 		salq	$3, %rax
 548 055e 4889C2   		movq	%rax, %rdx
 549 0561 488B45D8 		movq	-40(%rbp), %rax
 550 0565 488D0C02 		leaq	(%rdx,%rax), %rcx
 551 0569 8B45D0   		movl	-48(%rbp), %eax
 552 056c 83C006   		addl	$6, %eax
 553 056f 4863D0   		movslq	%eax, %rdx
 554 0572 4889D0   		movq	%rdx, %rax
 555 0575 4801C0   		addq	%rax, %rax
 556 0578 4801D0   		addq	%rdx, %rax
 557 057b 48C1E002 		salq	$2, %rax
 558 057f 4889C2   		movq	%rax, %rdx
 559 0582 488B45E8 		movq	-24(%rbp), %rax
 560 0586 4801D0   		addq	%rdx, %rax
 561 0589 8B00     		movl	(%rax), %eax
 562 058b 660FEFC0 		pxor	%xmm0, %xmm0
 563 058f F30F2AC0 		cvtsi2ss	%eax, %xmm0
 564 0593 660F7EC0 		movd	%xmm0, %eax
 565 0597 8901     		movl	%eax, (%rcx)
 127:./pdi/source/escrita.c ****                 cds[0 + 3*i].Y = hashtag[6 + i].Y;
 566              		.loc 1 127 0 discriminator 3
 567 0599 8B45D0   		movl	-48(%rbp), %eax
 568 059c 4863D0   		movslq	%eax, %rdx
 569 059f 4889D0   		movq	%rdx, %rax
 570 05a2 4801C0   		addq	%rax, %rax
 571 05a5 4801D0   		addq	%rdx, %rax
 572 05a8 48C1E003 		salq	$3, %rax
 573 05ac 4889C2   		movq	%rax, %rdx
 574 05af 488B45D8 		movq	-40(%rbp), %rax
 575 05b3 488D0C02 		leaq	(%rdx,%rax), %rcx
 576 05b7 8B45D0   		movl	-48(%rbp), %eax
 577 05ba 83C006   		addl	$6, %eax
 578 05bd 4863D0   		movslq	%eax, %rdx
 579 05c0 4889D0   		movq	%rdx, %rax
 580 05c3 4801C0   		addq	%rax, %rax
GAS LISTING /tmp/ccVh8ueE.s 			page 15


 581 05c6 4801D0   		addq	%rdx, %rax
 582 05c9 48C1E002 		salq	$2, %rax
 583 05cd 4889C2   		movq	%rax, %rdx
 584 05d0 488B45E8 		movq	-24(%rbp), %rax
 585 05d4 4801D0   		addq	%rdx, %rax
 586 05d7 8B4004   		movl	4(%rax), %eax
 587 05da 660FEFC9 		pxor	%xmm1, %xmm1
 588 05de F30F2AC8 		cvtsi2ss	%eax, %xmm1
 589 05e2 660F7EC8 		movd	%xmm1, %eax
 590 05e6 894104   		movl	%eax, 4(%rcx)
 128:./pdi/source/escrita.c **** 
 129:./pdi/source/escrita.c ****                 cds[1 + 3*i].X = hashtag[3 + i].X;
 591              		.loc 1 129 0 discriminator 3
 592 05e9 8B45D0   		movl	-48(%rbp), %eax
 593 05ec 4863D0   		movslq	%eax, %rdx
 594 05ef 4889D0   		movq	%rdx, %rax
 595 05f2 4801C0   		addq	%rax, %rax
 596 05f5 4801D0   		addq	%rdx, %rax
 597 05f8 48C1E003 		salq	$3, %rax
 598 05fc 488D5008 		leaq	8(%rax), %rdx
 599 0600 488B45D8 		movq	-40(%rbp), %rax
 600 0604 488D0C02 		leaq	(%rdx,%rax), %rcx
 601 0608 8B45D0   		movl	-48(%rbp), %eax
 602 060b 83C003   		addl	$3, %eax
 603 060e 4863D0   		movslq	%eax, %rdx
 604 0611 4889D0   		movq	%rdx, %rax
 605 0614 4801C0   		addq	%rax, %rax
 606 0617 4801D0   		addq	%rdx, %rax
 607 061a 48C1E002 		salq	$2, %rax
 608 061e 4889C2   		movq	%rax, %rdx
 609 0621 488B45E8 		movq	-24(%rbp), %rax
 610 0625 4801D0   		addq	%rdx, %rax
 611 0628 8B00     		movl	(%rax), %eax
 612 062a 660FEFD2 		pxor	%xmm2, %xmm2
 613 062e F30F2AD0 		cvtsi2ss	%eax, %xmm2
 614 0632 660F7ED0 		movd	%xmm2, %eax
 615 0636 8901     		movl	%eax, (%rcx)
 130:./pdi/source/escrita.c ****                 cds[1 + 3*i].Y = hashtag[3 + i].Y;
 616              		.loc 1 130 0 discriminator 3
 617 0638 8B45D0   		movl	-48(%rbp), %eax
 618 063b 4863D0   		movslq	%eax, %rdx
 619 063e 4889D0   		movq	%rdx, %rax
 620 0641 4801C0   		addq	%rax, %rax
 621 0644 4801D0   		addq	%rdx, %rax
 622 0647 48C1E003 		salq	$3, %rax
 623 064b 488D5008 		leaq	8(%rax), %rdx
 624 064f 488B45D8 		movq	-40(%rbp), %rax
 625 0653 488D0C02 		leaq	(%rdx,%rax), %rcx
 626 0657 8B45D0   		movl	-48(%rbp), %eax
 627 065a 83C003   		addl	$3, %eax
 628 065d 4863D0   		movslq	%eax, %rdx
 629 0660 4889D0   		movq	%rdx, %rax
 630 0663 4801C0   		addq	%rax, %rax
 631 0666 4801D0   		addq	%rdx, %rax
 632 0669 48C1E002 		salq	$2, %rax
 633 066d 4889C2   		movq	%rax, %rdx
 634 0670 488B45E8 		movq	-24(%rbp), %rax
GAS LISTING /tmp/ccVh8ueE.s 			page 16


 635 0674 4801D0   		addq	%rdx, %rax
 636 0677 8B4004   		movl	4(%rax), %eax
 637 067a 660FEFDB 		pxor	%xmm3, %xmm3
 638 067e F30F2AD8 		cvtsi2ss	%eax, %xmm3
 639 0682 660F7ED8 		movd	%xmm3, %eax
 640 0686 894104   		movl	%eax, 4(%rcx)
 131:./pdi/source/escrita.c **** 
 132:./pdi/source/escrita.c ****                 cds[2 + 3*i].X = hashtag[0 + i].X;
 641              		.loc 1 132 0 discriminator 3
 642 0689 8B45D0   		movl	-48(%rbp), %eax
 643 068c 4863D0   		movslq	%eax, %rdx
 644 068f 4889D0   		movq	%rdx, %rax
 645 0692 4801C0   		addq	%rax, %rax
 646 0695 4801D0   		addq	%rdx, %rax
 647 0698 48C1E003 		salq	$3, %rax
 648 069c 488D5010 		leaq	16(%rax), %rdx
 649 06a0 488B45D8 		movq	-40(%rbp), %rax
 650 06a4 488D0C02 		leaq	(%rdx,%rax), %rcx
 651 06a8 8B45D0   		movl	-48(%rbp), %eax
 652 06ab 4863D0   		movslq	%eax, %rdx
 653 06ae 4889D0   		movq	%rdx, %rax
 654 06b1 4801C0   		addq	%rax, %rax
 655 06b4 4801D0   		addq	%rdx, %rax
 656 06b7 48C1E002 		salq	$2, %rax
 657 06bb 4889C2   		movq	%rax, %rdx
 658 06be 488B45E8 		movq	-24(%rbp), %rax
 659 06c2 4801D0   		addq	%rdx, %rax
 660 06c5 8B00     		movl	(%rax), %eax
 661 06c7 660FEFE4 		pxor	%xmm4, %xmm4
 662 06cb F30F2AE0 		cvtsi2ss	%eax, %xmm4
 663 06cf 660F7EE0 		movd	%xmm4, %eax
 664 06d3 8901     		movl	%eax, (%rcx)
 133:./pdi/source/escrita.c ****                 cds[2 + 3*i].Y = hashtag[0 + i].Y;
 665              		.loc 1 133 0 discriminator 3
 666 06d5 8B45D0   		movl	-48(%rbp), %eax
 667 06d8 4863D0   		movslq	%eax, %rdx
 668 06db 4889D0   		movq	%rdx, %rax
 669 06de 4801C0   		addq	%rax, %rax
 670 06e1 4801D0   		addq	%rdx, %rax
 671 06e4 48C1E003 		salq	$3, %rax
 672 06e8 488D5010 		leaq	16(%rax), %rdx
 673 06ec 488B45D8 		movq	-40(%rbp), %rax
 674 06f0 488D0C02 		leaq	(%rdx,%rax), %rcx
 675 06f4 8B45D0   		movl	-48(%rbp), %eax
 676 06f7 4863D0   		movslq	%eax, %rdx
 677 06fa 4889D0   		movq	%rdx, %rax
 678 06fd 4801C0   		addq	%rax, %rax
 679 0700 4801D0   		addq	%rdx, %rax
 680 0703 48C1E002 		salq	$2, %rax
 681 0707 4889C2   		movq	%rax, %rdx
 682 070a 488B45E8 		movq	-24(%rbp), %rax
 683 070e 4801D0   		addq	%rdx, %rax
 684 0711 8B4004   		movl	4(%rax), %eax
 685 0714 660FEFED 		pxor	%xmm5, %xmm5
 686 0718 F30F2AE8 		cvtsi2ss	%eax, %xmm5
 687 071c 660F7EE8 		movd	%xmm5, %eax
 688 0720 894104   		movl	%eax, 4(%rcx)
GAS LISTING /tmp/ccVh8ueE.s 			page 17


 125:./pdi/source/escrita.c ****                 cds[0 + 3*i].X = hashtag[6 + i].X;
 689              		.loc 1 125 0 discriminator 3
 690 0723 8345D001 		addl	$1, -48(%rbp)
 691              	.L21:
 125:./pdi/source/escrita.c ****                 cds[0 + 3*i].X = hashtag[6 + i].X;
 692              		.loc 1 125 0 is_stmt 0 discriminator 1
 693 0727 837DD002 		cmpl	$2, -48(%rbp)
 694 072b 0F8E1AFE 		jle	.L22
 694      FFFF
 134:./pdi/source/escrita.c ****         }
 135:./pdi/source/escrita.c **** 
 136:./pdi/source/escrita.c ****         for (i = 0; i < 10; i++) {
 695              		.loc 1 136 0 is_stmt 1
 696 0731 C745D000 		movl	$0, -48(%rbp)
 696      000000
 697 0738 E9900000 		jmp	.L23
 697      00
 698              	.L24:
 137:./pdi/source/escrita.c ****                 cds[9 + i].X = bolinhas[i].X;
 699              		.loc 1 137 0 discriminator 3
 700 073d 8B45D0   		movl	-48(%rbp), %eax
 701 0740 83C009   		addl	$9, %eax
 702 0743 4898     		cltq
 703 0745 488D14C5 		leaq	0(,%rax,8), %rdx
 703      00000000 
 704 074d 488B45D8 		movq	-40(%rbp), %rax
 705 0751 488D0C02 		leaq	(%rdx,%rax), %rcx
 706 0755 8B45D0   		movl	-48(%rbp), %eax
 707 0758 4863D0   		movslq	%eax, %rdx
 708 075b 4889D0   		movq	%rdx, %rax
 709 075e 4801C0   		addq	%rax, %rax
 710 0761 4801D0   		addq	%rdx, %rax
 711 0764 48C1E002 		salq	$2, %rax
 712 0768 4889C2   		movq	%rax, %rdx
 713 076b 488B45E0 		movq	-32(%rbp), %rax
 714 076f 4801D0   		addq	%rdx, %rax
 715 0772 8B00     		movl	(%rax), %eax
 716 0774 660FEFF6 		pxor	%xmm6, %xmm6
 717 0778 F30F2AF0 		cvtsi2ss	%eax, %xmm6
 718 077c 660F7EF0 		movd	%xmm6, %eax
 719 0780 8901     		movl	%eax, (%rcx)
 138:./pdi/source/escrita.c ****                 cds[9 + i].Y = bolinhas[i].Y;
 720              		.loc 1 138 0 discriminator 3
 721 0782 8B45D0   		movl	-48(%rbp), %eax
 722 0785 83C009   		addl	$9, %eax
 723 0788 4898     		cltq
 724 078a 488D14C5 		leaq	0(,%rax,8), %rdx
 724      00000000 
 725 0792 488B45D8 		movq	-40(%rbp), %rax
 726 0796 488D0C02 		leaq	(%rdx,%rax), %rcx
 727 079a 8B45D0   		movl	-48(%rbp), %eax
 728 079d 4863D0   		movslq	%eax, %rdx
 729 07a0 4889D0   		movq	%rdx, %rax
 730 07a3 4801C0   		addq	%rax, %rax
 731 07a6 4801D0   		addq	%rdx, %rax
 732 07a9 48C1E002 		salq	$2, %rax
 733 07ad 4889C2   		movq	%rax, %rdx
GAS LISTING /tmp/ccVh8ueE.s 			page 18


 734 07b0 488B45E0 		movq	-32(%rbp), %rax
 735 07b4 4801D0   		addq	%rdx, %rax
 736 07b7 8B4004   		movl	4(%rax), %eax
 737 07ba 660FEFFF 		pxor	%xmm7, %xmm7
 738 07be F30F2AF8 		cvtsi2ss	%eax, %xmm7
 739 07c2 660F7EF8 		movd	%xmm7, %eax
 740 07c6 894104   		movl	%eax, 4(%rcx)
 136:./pdi/source/escrita.c ****                 cds[9 + i].X = bolinhas[i].X;
 741              		.loc 1 136 0 discriminator 3
 742 07c9 8345D001 		addl	$1, -48(%rbp)
 743              	.L23:
 136:./pdi/source/escrita.c ****                 cds[9 + i].X = bolinhas[i].X;
 744              		.loc 1 136 0 is_stmt 0 discriminator 1
 745 07cd 837DD009 		cmpl	$9, -48(%rbp)
 746 07d1 0F8E66FF 		jle	.L24
 746      FFFF
 139:./pdi/source/escrita.c ****         }
 140:./pdi/source/escrita.c **** /*
 141:./pdi/source/escrita.c ****         printf("Camera\n");
 142:./pdi/source/escrita.c ****         for (i = 0; i < 19; i++) {
 143:./pdi/source/escrita.c ****                 printf("%d %f %f\n", i, cds[i].X, cds[i].Y);
 144:./pdi/source/escrita.c ****         }
 145:./pdi/source/escrita.c **** */
 146:./pdi/source/escrita.c ****         free(bolinhas);
 747              		.loc 1 146 0 is_stmt 1
 748 07d7 488B45E0 		movq	-32(%rbp), %rax
 749 07db 4889C7   		movq	%rax, %rdi
 750 07de E8000000 		call	free
 750      00
 147:./pdi/source/escrita.c ****         free(hashtag);
 751              		.loc 1 147 0
 752 07e3 488B45E8 		movq	-24(%rbp), %rax
 753 07e7 4889C7   		movq	%rax, %rdi
 754 07ea E8000000 		call	free
 754      00
 148:./pdi/source/escrita.c **** 	return cds;
 755              		.loc 1 148 0
 756 07ef 488B45D8 		movq	-40(%rbp), %rax
 149:./pdi/source/escrita.c **** 
 150:./pdi/source/escrita.c **** }
 757              		.loc 1 150 0
 758 07f3 C9       		leave
 759              		.cfi_def_cfa 7, 8
 760 07f4 C3       		ret
 761              		.cfi_endproc
 762              	.LFE7:
 763              		.size	print_ballcoord, .-print_ballcoord
 764              	.Letext0:
 765              		.file 2 "./pdi/source/../headers/pixel.h"
 766              		.file 3 "./pdi/source/../headers/regiao.h"
 767              		.file 4 "./pdi/source/../headers/cabecalho.h"
 768              		.section	.debug_info,"",@progbits
 769              	.Ldebug_info0:
 770 0000 6C040000 		.long	0x46c
 771 0004 0400     		.value	0x4
 772 0006 00000000 		.long	.Ldebug_abbrev0
 773 000a 08       		.byte	0x8
GAS LISTING /tmp/ccVh8ueE.s 			page 19


 774 000b 01       		.uleb128 0x1
 775 000c 00000000 		.long	.LASF60
 776 0010 01       		.byte	0x1
 777 0011 00000000 		.long	.LASF61
 778 0015 00000000 		.long	.LASF62
 779 0019 00000000 		.quad	.Ltext0
 779      00000000 
 780 0021 F5070000 		.quad	.Letext0-.Ltext0
 780      00000000 
 781 0029 00000000 		.long	.Ldebug_line0
 782 002d 02       		.uleb128 0x2
 783 002e 08       		.byte	0x8
 784 002f 07       		.byte	0x7
 785 0030 00000000 		.long	.LASF0
 786 0034 02       		.uleb128 0x2
 787 0035 01       		.byte	0x1
 788 0036 08       		.byte	0x8
 789 0037 00000000 		.long	.LASF1
 790 003b 02       		.uleb128 0x2
 791 003c 02       		.byte	0x2
 792 003d 07       		.byte	0x7
 793 003e 00000000 		.long	.LASF2
 794 0042 02       		.uleb128 0x2
 795 0043 04       		.byte	0x4
 796 0044 07       		.byte	0x7
 797 0045 00000000 		.long	.LASF3
 798 0049 02       		.uleb128 0x2
 799 004a 01       		.byte	0x1
 800 004b 06       		.byte	0x6
 801 004c 00000000 		.long	.LASF4
 802 0050 02       		.uleb128 0x2
 803 0051 02       		.byte	0x2
 804 0052 05       		.byte	0x5
 805 0053 00000000 		.long	.LASF5
 806 0057 03       		.uleb128 0x3
 807 0058 04       		.byte	0x4
 808 0059 05       		.byte	0x5
 809 005a 696E7400 		.string	"int"
 810 005e 02       		.uleb128 0x2
 811 005f 08       		.byte	0x8
 812 0060 05       		.byte	0x5
 813 0061 00000000 		.long	.LASF6
 814 0065 02       		.uleb128 0x2
 815 0066 08       		.byte	0x8
 816 0067 07       		.byte	0x7
 817 0068 00000000 		.long	.LASF7
 818 006c 04       		.uleb128 0x4
 819 006d 08       		.byte	0x8
 820 006e 72000000 		.long	0x72
 821 0072 02       		.uleb128 0x2
 822 0073 01       		.byte	0x1
 823 0074 06       		.byte	0x6
 824 0075 00000000 		.long	.LASF8
 825 0079 02       		.uleb128 0x2
 826 007a 08       		.byte	0x8
 827 007b 05       		.byte	0x5
 828 007c 00000000 		.long	.LASF9
GAS LISTING /tmp/ccVh8ueE.s 			page 20


 829 0080 02       		.uleb128 0x2
 830 0081 08       		.byte	0x8
 831 0082 07       		.byte	0x7
 832 0083 00000000 		.long	.LASF10
 833 0087 05       		.uleb128 0x5
 834 0088 00000000 		.long	.LASF17
 835 008c 08       		.byte	0x8
 836 008d 02       		.byte	0x2
 837 008e 05       		.byte	0x5
 838 008f F2000000 		.long	0xf2
 839 0093 06       		.uleb128 0x6
 840 0094 00000000 		.long	.LASF11
 841 0098 02       		.byte	0x2
 842 0099 06       		.byte	0x6
 843 009a 34000000 		.long	0x34
 844 009e 00       		.byte	0
 845 009f 07       		.uleb128 0x7
 846 00a0 636200   		.string	"cb"
 847 00a3 02       		.byte	0x2
 848 00a4 06       		.byte	0x6
 849 00a5 34000000 		.long	0x34
 850 00a9 01       		.byte	0x1
 851 00aa 07       		.uleb128 0x7
 852 00ab 637200   		.string	"cr"
 853 00ae 02       		.byte	0x2
 854 00af 06       		.byte	0x6
 855 00b0 34000000 		.long	0x34
 856 00b4 02       		.byte	0x2
 857 00b5 06       		.uleb128 0x6
 858 00b6 00000000 		.long	.LASF12
 859 00ba 02       		.byte	0x2
 860 00bb 07       		.byte	0x7
 861 00bc 34000000 		.long	0x34
 862 00c0 03       		.byte	0x3
 863 00c1 06       		.uleb128 0x6
 864 00c2 00000000 		.long	.LASF13
 865 00c6 02       		.byte	0x2
 866 00c7 07       		.byte	0x7
 867 00c8 34000000 		.long	0x34
 868 00cc 04       		.byte	0x4
 869 00cd 06       		.uleb128 0x6
 870 00ce 00000000 		.long	.LASF14
 871 00d2 02       		.byte	0x2
 872 00d3 07       		.byte	0x7
 873 00d4 34000000 		.long	0x34
 874 00d8 05       		.byte	0x5
 875 00d9 06       		.uleb128 0x6
 876 00da 00000000 		.long	.LASF15
 877 00de 02       		.byte	0x2
 878 00df 07       		.byte	0x7
 879 00e0 34000000 		.long	0x34
 880 00e4 06       		.byte	0x6
 881 00e5 06       		.uleb128 0x6
 882 00e6 00000000 		.long	.LASF16
 883 00ea 02       		.byte	0x2
 884 00eb 07       		.byte	0x7
 885 00ec 34000000 		.long	0x34
GAS LISTING /tmp/ccVh8ueE.s 			page 21


 886 00f0 07       		.byte	0x7
 887 00f1 00       		.byte	0
 888 00f2 05       		.uleb128 0x5
 889 00f3 00000000 		.long	.LASF18
 890 00f7 0C       		.byte	0xc
 891 00f8 02       		.byte	0x2
 892 00f9 1B       		.byte	0x1b
 893 00fa 8F010000 		.long	0x18f
 894 00fe 06       		.uleb128 0x6
 895 00ff 00000000 		.long	.LASF19
 896 0103 02       		.byte	0x2
 897 0104 1C       		.byte	0x1c
 898 0105 34000000 		.long	0x34
 899 0109 00       		.byte	0
 900 010a 06       		.uleb128 0x6
 901 010b 00000000 		.long	.LASF20
 902 010f 02       		.byte	0x2
 903 0110 1C       		.byte	0x1c
 904 0111 34000000 		.long	0x34
 905 0115 01       		.byte	0x1
 906 0116 06       		.uleb128 0x6
 907 0117 00000000 		.long	.LASF21
 908 011b 02       		.byte	0x2
 909 011c 1C       		.byte	0x1c
 910 011d 34000000 		.long	0x34
 911 0121 02       		.byte	0x2
 912 0122 06       		.uleb128 0x6
 913 0123 00000000 		.long	.LASF22
 914 0127 02       		.byte	0x2
 915 0128 1C       		.byte	0x1c
 916 0129 34000000 		.long	0x34
 917 012d 03       		.byte	0x3
 918 012e 06       		.uleb128 0x6
 919 012f 00000000 		.long	.LASF23
 920 0133 02       		.byte	0x2
 921 0134 1D       		.byte	0x1d
 922 0135 34000000 		.long	0x34
 923 0139 04       		.byte	0x4
 924 013a 06       		.uleb128 0x6
 925 013b 00000000 		.long	.LASF24
 926 013f 02       		.byte	0x2
 927 0140 1D       		.byte	0x1d
 928 0141 34000000 		.long	0x34
 929 0145 05       		.byte	0x5
 930 0146 06       		.uleb128 0x6
 931 0147 00000000 		.long	.LASF25
 932 014b 02       		.byte	0x2
 933 014c 1D       		.byte	0x1d
 934 014d 34000000 		.long	0x34
 935 0151 06       		.byte	0x6
 936 0152 06       		.uleb128 0x6
 937 0153 00000000 		.long	.LASF26
 938 0157 02       		.byte	0x2
 939 0158 1D       		.byte	0x1d
 940 0159 34000000 		.long	0x34
 941 015d 07       		.byte	0x7
 942 015e 06       		.uleb128 0x6
GAS LISTING /tmp/ccVh8ueE.s 			page 22


 943 015f 00000000 		.long	.LASF27
 944 0163 02       		.byte	0x2
 945 0164 1E       		.byte	0x1e
 946 0165 34000000 		.long	0x34
 947 0169 08       		.byte	0x8
 948 016a 06       		.uleb128 0x6
 949 016b 00000000 		.long	.LASF28
 950 016f 02       		.byte	0x2
 951 0170 1E       		.byte	0x1e
 952 0171 34000000 		.long	0x34
 953 0175 09       		.byte	0x9
 954 0176 06       		.uleb128 0x6
 955 0177 00000000 		.long	.LASF29
 956 017b 02       		.byte	0x2
 957 017c 1E       		.byte	0x1e
 958 017d 34000000 		.long	0x34
 959 0181 0A       		.byte	0xa
 960 0182 06       		.uleb128 0x6
 961 0183 00000000 		.long	.LASF30
 962 0187 02       		.byte	0x2
 963 0188 1E       		.byte	0x1e
 964 0189 34000000 		.long	0x34
 965 018d 0B       		.byte	0xb
 966 018e 00       		.byte	0
 967 018f 02       		.uleb128 0x2
 968 0190 04       		.byte	0x4
 969 0191 04       		.byte	0x4
 970 0192 00000000 		.long	.LASF31
 971 0196 02       		.uleb128 0x2
 972 0197 08       		.byte	0x8
 973 0198 04       		.byte	0x4
 974 0199 00000000 		.long	.LASF32
 975 019d 05       		.uleb128 0x5
 976 019e 00000000 		.long	.LASF33
 977 01a2 0C       		.byte	0xc
 978 01a3 03       		.byte	0x3
 979 01a4 05       		.byte	0x5
 980 01a5 CA010000 		.long	0x1ca
 981 01a9 07       		.uleb128 0x7
 982 01aa 5800     		.string	"X"
 983 01ac 03       		.byte	0x3
 984 01ad 06       		.byte	0x6
 985 01ae 57000000 		.long	0x57
 986 01b2 00       		.byte	0
 987 01b3 07       		.uleb128 0x7
 988 01b4 5900     		.string	"Y"
 989 01b6 03       		.byte	0x3
 990 01b7 06       		.byte	0x6
 991 01b8 57000000 		.long	0x57
 992 01bc 04       		.byte	0x4
 993 01bd 06       		.uleb128 0x6
 994 01be 00000000 		.long	.LASF34
 995 01c2 03       		.byte	0x3
 996 01c3 06       		.byte	0x6
 997 01c4 57000000 		.long	0x57
 998 01c8 08       		.byte	0x8
 999 01c9 00       		.byte	0
GAS LISTING /tmp/ccVh8ueE.s 			page 23


 1000 01ca 05       		.uleb128 0x5
 1001 01cb 00000000 		.long	.LASF35
 1002 01cf 10       		.byte	0x10
 1003 01d0 03       		.byte	0x3
 1004 01d1 0B       		.byte	0xb
 1005 01d2 EF010000 		.long	0x1ef
 1006 01d6 06       		.uleb128 0x6
 1007 01d7 00000000 		.long	.LASF36
 1008 01db 03       		.byte	0x3
 1009 01dc 0C       		.byte	0xc
 1010 01dd EF010000 		.long	0x1ef
 1011 01e1 00       		.byte	0
 1012 01e2 06       		.uleb128 0x6
 1013 01e3 00000000 		.long	.LASF37
 1014 01e7 03       		.byte	0x3
 1015 01e8 0D       		.byte	0xd
 1016 01e9 57000000 		.long	0x57
 1017 01ed 08       		.byte	0x8
 1018 01ee 00       		.byte	0
 1019 01ef 04       		.uleb128 0x4
 1020 01f0 08       		.byte	0x8
 1021 01f1 9D010000 		.long	0x19d
 1022 01f5 08       		.uleb128 0x8
 1023 01f6 434400   		.string	"CD"
 1024 01f9 08       		.byte	0x8
 1025 01fa 04       		.byte	0x4
 1026 01fb 16       		.byte	0x16
 1027 01fc 15020000 		.long	0x215
 1028 0200 07       		.uleb128 0x7
 1029 0201 5800     		.string	"X"
 1030 0203 04       		.byte	0x4
 1031 0204 17       		.byte	0x17
 1032 0205 8F010000 		.long	0x18f
 1033 0209 00       		.byte	0
 1034 020a 07       		.uleb128 0x7
 1035 020b 5900     		.string	"Y"
 1036 020d 04       		.byte	0x4
 1037 020e 17       		.byte	0x17
 1038 020f 8F010000 		.long	0x18f
 1039 0213 04       		.byte	0x4
 1040 0214 00       		.byte	0
 1041 0215 09       		.uleb128 0x9
 1042 0216 00000000 		.long	.LASF42
 1043 021a 01       		.byte	0x1
 1044 021b 03       		.byte	0x3
 1045 021c 00000000 		.quad	.LFB2
 1045      00000000 
 1046 0224 95000000 		.quad	.LFE2-.LFB2
 1046      00000000 
 1047 022c 01       		.uleb128 0x1
 1048 022d 9C       		.byte	0x9c
 1049 022e 79020000 		.long	0x279
 1050 0232 0A       		.uleb128 0xa
 1051 0233 00000000 		.long	.LASF38
 1052 0237 01       		.byte	0x1
 1053 0238 03       		.byte	0x3
 1054 0239 79020000 		.long	0x279
GAS LISTING /tmp/ccVh8ueE.s 			page 24


 1055 023d 02       		.uleb128 0x2
 1056 023e 91       		.byte	0x91
 1057 023f 58       		.sleb128 -40
 1058 0240 0A       		.uleb128 0xa
 1059 0241 00000000 		.long	.LASF39
 1060 0245 01       		.byte	0x1
 1061 0246 03       		.byte	0x3
 1062 0247 85020000 		.long	0x285
 1063 024b 02       		.uleb128 0x2
 1064 024c 91       		.byte	0x91
 1065 024d 50       		.sleb128 -48
 1066 024e 0A       		.uleb128 0xa
 1067 024f 00000000 		.long	.LASF40
 1068 0253 01       		.byte	0x1
 1069 0254 03       		.byte	0x3
 1070 0255 8B020000 		.long	0x28b
 1071 0259 02       		.uleb128 0x2
 1072 025a 91       		.byte	0x91
 1073 025b 48       		.sleb128 -56
 1074 025c 0A       		.uleb128 0xa
 1075 025d 00000000 		.long	.LASF41
 1076 0261 01       		.byte	0x1
 1077 0262 03       		.byte	0x3
 1078 0263 6C000000 		.long	0x6c
 1079 0267 02       		.uleb128 0x2
 1080 0268 91       		.byte	0x91
 1081 0269 40       		.sleb128 -64
 1082 026a 0B       		.uleb128 0xb
 1083 026b 00000000 		.long	.LASF43
 1084 026f 01       		.byte	0x1
 1085 0270 05       		.byte	0x5
 1086 0271 85020000 		.long	0x285
 1087 0275 02       		.uleb128 0x2
 1088 0276 91       		.byte	0x91
 1089 0277 68       		.sleb128 -24
 1090 0278 00       		.byte	0
 1091 0279 04       		.uleb128 0x4
 1092 027a 08       		.byte	0x8
 1093 027b 7F020000 		.long	0x27f
 1094 027f 04       		.uleb128 0x4
 1095 0280 08       		.byte	0x8
 1096 0281 87000000 		.long	0x87
 1097 0285 04       		.uleb128 0x4
 1098 0286 08       		.byte	0x8
 1099 0287 34000000 		.long	0x34
 1100 028b 04       		.uleb128 0x4
 1101 028c 08       		.byte	0x8
 1102 028d F2000000 		.long	0xf2
 1103 0291 0C       		.uleb128 0xc
 1104 0292 414900   		.string	"AI"
 1105 0295 01       		.byte	0x1
 1106 0296 2D       		.byte	0x2d
 1107 0297 00000000 		.quad	.LFB3
 1107      00000000 
 1108 029f 49000000 		.quad	.LFE3-.LFB3
 1108      00000000 
 1109 02a7 01       		.uleb128 0x1
GAS LISTING /tmp/ccVh8ueE.s 			page 25


 1110 02a8 9C       		.byte	0x9c
 1111 02a9 D8020000 		.long	0x2d8
 1112 02ad 0A       		.uleb128 0xa
 1113 02ae 00000000 		.long	.LASF38
 1114 02b2 01       		.byte	0x1
 1115 02b3 2D       		.byte	0x2d
 1116 02b4 79020000 		.long	0x279
 1117 02b8 02       		.uleb128 0x2
 1118 02b9 91       		.byte	0x91
 1119 02ba 48       		.sleb128 -56
 1120 02bb 0B       		.uleb128 0xb
 1121 02bc 00000000 		.long	.LASF44
 1122 02c0 01       		.byte	0x1
 1123 02c1 30       		.byte	0x30
 1124 02c2 87000000 		.long	0x87
 1125 02c6 02       		.uleb128 0x2
 1126 02c7 91       		.byte	0x91
 1127 02c8 50       		.sleb128 -48
 1128 02c9 0B       		.uleb128 0xb
 1129 02ca 00000000 		.long	.LASF45
 1130 02ce 01       		.byte	0x1
 1131 02cf 34       		.byte	0x34
 1132 02d0 87000000 		.long	0x87
 1133 02d4 02       		.uleb128 0x2
 1134 02d5 91       		.byte	0x91
 1135 02d6 60       		.sleb128 -32
 1136 02d7 00       		.byte	0
 1137 02d8 09       		.uleb128 0x9
 1138 02d9 00000000 		.long	.LASF46
 1139 02dd 01       		.byte	0x1
 1140 02de 3D       		.byte	0x3d
 1141 02df 00000000 		.quad	.LFB4
 1141      00000000 
 1142 02e7 29030000 		.quad	.LFE4-.LFB4
 1142      00000000 
 1143 02ef 01       		.uleb128 0x1
 1144 02f0 9C       		.byte	0x9c
 1145 02f1 47030000 		.long	0x347
 1146 02f5 0A       		.uleb128 0xa
 1147 02f6 00000000 		.long	.LASF38
 1148 02fa 01       		.byte	0x1
 1149 02fb 3D       		.byte	0x3d
 1150 02fc 79020000 		.long	0x279
 1151 0300 02       		.uleb128 0x2
 1152 0301 91       		.byte	0x91
 1153 0302 48       		.sleb128 -56
 1154 0303 0A       		.uleb128 0xa
 1155 0304 00000000 		.long	.LASF47
 1156 0308 01       		.byte	0x1
 1157 0309 3D       		.byte	0x3d
 1158 030a 87000000 		.long	0x87
 1159 030e 02       		.uleb128 0x2
 1160 030f 91       		.byte	0x91
 1161 0310 40       		.sleb128 -64
 1162 0311 0A       		.uleb128 0xa
 1163 0312 00000000 		.long	.LASF48
 1164 0316 01       		.byte	0x1
GAS LISTING /tmp/ccVh8ueE.s 			page 26


 1165 0317 3D       		.byte	0x3d
 1166 0318 87000000 		.long	0x87
 1167 031c 03       		.uleb128 0x3
 1168 031d 91       		.byte	0x91
 1169 031e B07F     		.sleb128 -80
 1170 0320 0D       		.uleb128 0xd
 1171 0321 746D7000 		.string	"tmp"
 1172 0325 01       		.byte	0x1
 1173 0326 3F       		.byte	0x3f
 1174 0327 87000000 		.long	0x87
 1175 032b 02       		.uleb128 0x2
 1176 032c 91       		.byte	0x91
 1177 032d 60       		.sleb128 -32
 1178 032e 0D       		.uleb128 0xd
 1179 032f 6900     		.string	"i"
 1180 0331 01       		.byte	0x1
 1181 0332 40       		.byte	0x40
 1182 0333 57000000 		.long	0x57
 1183 0337 02       		.uleb128 0x2
 1184 0338 91       		.byte	0x91
 1185 0339 58       		.sleb128 -40
 1186 033a 0D       		.uleb128 0xd
 1187 033b 6A00     		.string	"j"
 1188 033d 01       		.byte	0x1
 1189 033e 40       		.byte	0x40
 1190 033f 57000000 		.long	0x57
 1191 0343 02       		.uleb128 0x2
 1192 0344 91       		.byte	0x91
 1193 0345 5C       		.sleb128 -36
 1194 0346 00       		.byte	0
 1195 0347 0E       		.uleb128 0xe
 1196 0348 00000000 		.long	.LASF55
 1197 034c 01       		.byte	0x1
 1198 034d 5C       		.byte	0x5c
 1199 034e 57000000 		.long	0x57
 1200 0352 00000000 		.quad	.LFB5
 1200      00000000 
 1201 035a 6B000000 		.quad	.LFE5-.LFB5
 1201      00000000 
 1202 0362 01       		.uleb128 0x1
 1203 0363 9C       		.byte	0x9c
 1204 0364 93030000 		.long	0x393
 1205 0368 0A       		.uleb128 0xa
 1206 0369 00000000 		.long	.LASF49
 1207 036d 01       		.byte	0x1
 1208 036e 5C       		.byte	0x5c
 1209 036f 87000000 		.long	0x87
 1210 0373 02       		.uleb128 0x2
 1211 0374 91       		.byte	0x91
 1212 0375 50       		.sleb128 -48
 1213 0376 0A       		.uleb128 0xa
 1214 0377 00000000 		.long	.LASF50
 1215 037b 01       		.byte	0x1
 1216 037c 5C       		.byte	0x5c
 1217 037d 87000000 		.long	0x87
 1218 0381 02       		.uleb128 0x2
 1219 0382 91       		.byte	0x91
GAS LISTING /tmp/ccVh8ueE.s 			page 27


 1220 0383 40       		.sleb128 -64
 1221 0384 0B       		.uleb128 0xb
 1222 0385 00000000 		.long	.LASF51
 1223 0389 01       		.byte	0x1
 1224 038a 5D       		.byte	0x5d
 1225 038b 57000000 		.long	0x57
 1226 038f 02       		.uleb128 0x2
 1227 0390 91       		.byte	0x91
 1228 0391 6C       		.sleb128 -20
 1229 0392 00       		.byte	0
 1230 0393 09       		.uleb128 0x9
 1231 0394 00000000 		.long	.LASF52
 1232 0398 01       		.byte	0x1
 1233 0399 66       		.byte	0x66
 1234 039a 00000000 		.quad	.LFB6
 1234      00000000 
 1235 03a2 74000000 		.quad	.LFE6-.LFB6
 1235      00000000 
 1236 03aa 01       		.uleb128 0x1
 1237 03ab 9C       		.byte	0x9c
 1238 03ac DB030000 		.long	0x3db
 1239 03b0 0A       		.uleb128 0xa
 1240 03b1 00000000 		.long	.LASF41
 1241 03b5 01       		.byte	0x1
 1242 03b6 66       		.byte	0x66
 1243 03b7 6C000000 		.long	0x6c
 1244 03bb 02       		.uleb128 0x2
 1245 03bc 91       		.byte	0x91
 1246 03bd 58       		.sleb128 -40
 1247 03be 0A       		.uleb128 0xa
 1248 03bf 00000000 		.long	.LASF53
 1249 03c3 01       		.byte	0x1
 1250 03c4 66       		.byte	0x66
 1251 03c5 85020000 		.long	0x285
 1252 03c9 02       		.uleb128 0x2
 1253 03ca 91       		.byte	0x91
 1254 03cb 50       		.sleb128 -48
 1255 03cc 0B       		.uleb128 0xb
 1256 03cd 00000000 		.long	.LASF54
 1257 03d1 01       		.byte	0x1
 1258 03d2 67       		.byte	0x67
 1259 03d3 57000000 		.long	0x57
 1260 03d7 02       		.uleb128 0x2
 1261 03d8 91       		.byte	0x91
 1262 03d9 6C       		.sleb128 -20
 1263 03da 00       		.byte	0
 1264 03db 0F       		.uleb128 0xf
 1265 03dc 00000000 		.long	.LASF56
 1266 03e0 01       		.byte	0x1
 1267 03e1 73       		.byte	0x73
 1268 03e2 5E040000 		.long	0x45e
 1269 03e6 00000000 		.quad	.LFB7
 1269      00000000 
 1270 03ee 0F030000 		.quad	.LFE7-.LFB7
 1270      00000000 
 1271 03f6 01       		.uleb128 0x1
 1272 03f7 9C       		.byte	0x9c
GAS LISTING /tmp/ccVh8ueE.s 			page 28


 1273 03f8 5E040000 		.long	0x45e
 1274 03fc 0A       		.uleb128 0xa
 1275 03fd 00000000 		.long	.LASF38
 1276 0401 01       		.byte	0x1
 1277 0402 73       		.byte	0x73
 1278 0403 79020000 		.long	0x279
 1279 0407 03       		.uleb128 0x3
 1280 0408 91       		.byte	0x91
 1281 0409 B87F     		.sleb128 -72
 1282 040b 0D       		.uleb128 0xd
 1283 040c 63647300 		.string	"cds"
 1284 0410 01       		.byte	0x1
 1285 0411 75       		.byte	0x75
 1286 0412 5E040000 		.long	0x45e
 1287 0416 02       		.uleb128 0x2
 1288 0417 91       		.byte	0x91
 1289 0418 48       		.sleb128 -56
 1290 0419 0D       		.uleb128 0xd
 1291 041a 61757800 		.string	"aux"
 1292 041e 01       		.byte	0x1
 1293 041f 76       		.byte	0x76
 1294 0420 CA010000 		.long	0x1ca
 1295 0424 02       		.uleb128 0x2
 1296 0425 91       		.byte	0x91
 1297 0426 60       		.sleb128 -32
 1298 0427 0B       		.uleb128 0xb
 1299 0428 00000000 		.long	.LASF57
 1300 042c 01       		.byte	0x1
 1301 042d 77       		.byte	0x77
 1302 042e EF010000 		.long	0x1ef
 1303 0432 02       		.uleb128 0x2
 1304 0433 91       		.byte	0x91
 1305 0434 50       		.sleb128 -48
 1306 0435 0B       		.uleb128 0xb
 1307 0436 00000000 		.long	.LASF58
 1308 043a 01       		.byte	0x1
 1309 043b 79       		.byte	0x79
 1310 043c 57000000 		.long	0x57
 1311 0440 02       		.uleb128 0x2
 1312 0441 91       		.byte	0x91
 1313 0442 44       		.sleb128 -60
 1314 0443 0B       		.uleb128 0xb
 1315 0444 00000000 		.long	.LASF59
 1316 0448 01       		.byte	0x1
 1317 0449 7A       		.byte	0x7a
 1318 044a EF010000 		.long	0x1ef
 1319 044e 02       		.uleb128 0x2
 1320 044f 91       		.byte	0x91
 1321 0450 58       		.sleb128 -40
 1322 0451 0D       		.uleb128 0xd
 1323 0452 6900     		.string	"i"
 1324 0454 01       		.byte	0x1
 1325 0455 7B       		.byte	0x7b
 1326 0456 57000000 		.long	0x57
 1327 045a 02       		.uleb128 0x2
 1328 045b 91       		.byte	0x91
 1329 045c 40       		.sleb128 -64
GAS LISTING /tmp/ccVh8ueE.s 			page 29


 1330 045d 00       		.byte	0
 1331 045e 04       		.uleb128 0x4
 1332 045f 08       		.byte	0x8
 1333 0460 F5010000 		.long	0x1f5
 1334 0464 10       		.uleb128 0x10
 1335 0465 00000000 		.long	.LASF63
 1336 0469 04       		.byte	0x4
 1337 046a 32       		.byte	0x32
 1338 046b 57000000 		.long	0x57
 1339 046f 00       		.byte	0
 1340              		.section	.debug_abbrev,"",@progbits
 1341              	.Ldebug_abbrev0:
 1342 0000 01       		.uleb128 0x1
 1343 0001 11       		.uleb128 0x11
 1344 0002 01       		.byte	0x1
 1345 0003 25       		.uleb128 0x25
 1346 0004 0E       		.uleb128 0xe
 1347 0005 13       		.uleb128 0x13
 1348 0006 0B       		.uleb128 0xb
 1349 0007 03       		.uleb128 0x3
 1350 0008 0E       		.uleb128 0xe
 1351 0009 1B       		.uleb128 0x1b
 1352 000a 0E       		.uleb128 0xe
 1353 000b 11       		.uleb128 0x11
 1354 000c 01       		.uleb128 0x1
 1355 000d 12       		.uleb128 0x12
 1356 000e 07       		.uleb128 0x7
 1357 000f 10       		.uleb128 0x10
 1358 0010 17       		.uleb128 0x17
 1359 0011 00       		.byte	0
 1360 0012 00       		.byte	0
 1361 0013 02       		.uleb128 0x2
 1362 0014 24       		.uleb128 0x24
 1363 0015 00       		.byte	0
 1364 0016 0B       		.uleb128 0xb
 1365 0017 0B       		.uleb128 0xb
 1366 0018 3E       		.uleb128 0x3e
 1367 0019 0B       		.uleb128 0xb
 1368 001a 03       		.uleb128 0x3
 1369 001b 0E       		.uleb128 0xe
 1370 001c 00       		.byte	0
 1371 001d 00       		.byte	0
 1372 001e 03       		.uleb128 0x3
 1373 001f 24       		.uleb128 0x24
 1374 0020 00       		.byte	0
 1375 0021 0B       		.uleb128 0xb
 1376 0022 0B       		.uleb128 0xb
 1377 0023 3E       		.uleb128 0x3e
 1378 0024 0B       		.uleb128 0xb
 1379 0025 03       		.uleb128 0x3
 1380 0026 08       		.uleb128 0x8
 1381 0027 00       		.byte	0
 1382 0028 00       		.byte	0
 1383 0029 04       		.uleb128 0x4
 1384 002a 0F       		.uleb128 0xf
 1385 002b 00       		.byte	0
 1386 002c 0B       		.uleb128 0xb
GAS LISTING /tmp/ccVh8ueE.s 			page 30


 1387 002d 0B       		.uleb128 0xb
 1388 002e 49       		.uleb128 0x49
 1389 002f 13       		.uleb128 0x13
 1390 0030 00       		.byte	0
 1391 0031 00       		.byte	0
 1392 0032 05       		.uleb128 0x5
 1393 0033 13       		.uleb128 0x13
 1394 0034 01       		.byte	0x1
 1395 0035 03       		.uleb128 0x3
 1396 0036 0E       		.uleb128 0xe
 1397 0037 0B       		.uleb128 0xb
 1398 0038 0B       		.uleb128 0xb
 1399 0039 3A       		.uleb128 0x3a
 1400 003a 0B       		.uleb128 0xb
 1401 003b 3B       		.uleb128 0x3b
 1402 003c 0B       		.uleb128 0xb
 1403 003d 01       		.uleb128 0x1
 1404 003e 13       		.uleb128 0x13
 1405 003f 00       		.byte	0
 1406 0040 00       		.byte	0
 1407 0041 06       		.uleb128 0x6
 1408 0042 0D       		.uleb128 0xd
 1409 0043 00       		.byte	0
 1410 0044 03       		.uleb128 0x3
 1411 0045 0E       		.uleb128 0xe
 1412 0046 3A       		.uleb128 0x3a
 1413 0047 0B       		.uleb128 0xb
 1414 0048 3B       		.uleb128 0x3b
 1415 0049 0B       		.uleb128 0xb
 1416 004a 49       		.uleb128 0x49
 1417 004b 13       		.uleb128 0x13
 1418 004c 38       		.uleb128 0x38
 1419 004d 0B       		.uleb128 0xb
 1420 004e 00       		.byte	0
 1421 004f 00       		.byte	0
 1422 0050 07       		.uleb128 0x7
 1423 0051 0D       		.uleb128 0xd
 1424 0052 00       		.byte	0
 1425 0053 03       		.uleb128 0x3
 1426 0054 08       		.uleb128 0x8
 1427 0055 3A       		.uleb128 0x3a
 1428 0056 0B       		.uleb128 0xb
 1429 0057 3B       		.uleb128 0x3b
 1430 0058 0B       		.uleb128 0xb
 1431 0059 49       		.uleb128 0x49
 1432 005a 13       		.uleb128 0x13
 1433 005b 38       		.uleb128 0x38
 1434 005c 0B       		.uleb128 0xb
 1435 005d 00       		.byte	0
 1436 005e 00       		.byte	0
 1437 005f 08       		.uleb128 0x8
 1438 0060 13       		.uleb128 0x13
 1439 0061 01       		.byte	0x1
 1440 0062 03       		.uleb128 0x3
 1441 0063 08       		.uleb128 0x8
 1442 0064 0B       		.uleb128 0xb
 1443 0065 0B       		.uleb128 0xb
GAS LISTING /tmp/ccVh8ueE.s 			page 31


 1444 0066 3A       		.uleb128 0x3a
 1445 0067 0B       		.uleb128 0xb
 1446 0068 3B       		.uleb128 0x3b
 1447 0069 0B       		.uleb128 0xb
 1448 006a 01       		.uleb128 0x1
 1449 006b 13       		.uleb128 0x13
 1450 006c 00       		.byte	0
 1451 006d 00       		.byte	0
 1452 006e 09       		.uleb128 0x9
 1453 006f 2E       		.uleb128 0x2e
 1454 0070 01       		.byte	0x1
 1455 0071 3F       		.uleb128 0x3f
 1456 0072 19       		.uleb128 0x19
 1457 0073 03       		.uleb128 0x3
 1458 0074 0E       		.uleb128 0xe
 1459 0075 3A       		.uleb128 0x3a
 1460 0076 0B       		.uleb128 0xb
 1461 0077 3B       		.uleb128 0x3b
 1462 0078 0B       		.uleb128 0xb
 1463 0079 27       		.uleb128 0x27
 1464 007a 19       		.uleb128 0x19
 1465 007b 11       		.uleb128 0x11
 1466 007c 01       		.uleb128 0x1
 1467 007d 12       		.uleb128 0x12
 1468 007e 07       		.uleb128 0x7
 1469 007f 40       		.uleb128 0x40
 1470 0080 18       		.uleb128 0x18
 1471 0081 9642     		.uleb128 0x2116
 1472 0083 19       		.uleb128 0x19
 1473 0084 01       		.uleb128 0x1
 1474 0085 13       		.uleb128 0x13
 1475 0086 00       		.byte	0
 1476 0087 00       		.byte	0
 1477 0088 0A       		.uleb128 0xa
 1478 0089 05       		.uleb128 0x5
 1479 008a 00       		.byte	0
 1480 008b 03       		.uleb128 0x3
 1481 008c 0E       		.uleb128 0xe
 1482 008d 3A       		.uleb128 0x3a
 1483 008e 0B       		.uleb128 0xb
 1484 008f 3B       		.uleb128 0x3b
 1485 0090 0B       		.uleb128 0xb
 1486 0091 49       		.uleb128 0x49
 1487 0092 13       		.uleb128 0x13
 1488 0093 02       		.uleb128 0x2
 1489 0094 18       		.uleb128 0x18
 1490 0095 00       		.byte	0
 1491 0096 00       		.byte	0
 1492 0097 0B       		.uleb128 0xb
 1493 0098 34       		.uleb128 0x34
 1494 0099 00       		.byte	0
 1495 009a 03       		.uleb128 0x3
 1496 009b 0E       		.uleb128 0xe
 1497 009c 3A       		.uleb128 0x3a
 1498 009d 0B       		.uleb128 0xb
 1499 009e 3B       		.uleb128 0x3b
 1500 009f 0B       		.uleb128 0xb
GAS LISTING /tmp/ccVh8ueE.s 			page 32


 1501 00a0 49       		.uleb128 0x49
 1502 00a1 13       		.uleb128 0x13
 1503 00a2 02       		.uleb128 0x2
 1504 00a3 18       		.uleb128 0x18
 1505 00a4 00       		.byte	0
 1506 00a5 00       		.byte	0
 1507 00a6 0C       		.uleb128 0xc
 1508 00a7 2E       		.uleb128 0x2e
 1509 00a8 01       		.byte	0x1
 1510 00a9 3F       		.uleb128 0x3f
 1511 00aa 19       		.uleb128 0x19
 1512 00ab 03       		.uleb128 0x3
 1513 00ac 08       		.uleb128 0x8
 1514 00ad 3A       		.uleb128 0x3a
 1515 00ae 0B       		.uleb128 0xb
 1516 00af 3B       		.uleb128 0x3b
 1517 00b0 0B       		.uleb128 0xb
 1518 00b1 27       		.uleb128 0x27
 1519 00b2 19       		.uleb128 0x19
 1520 00b3 11       		.uleb128 0x11
 1521 00b4 01       		.uleb128 0x1
 1522 00b5 12       		.uleb128 0x12
 1523 00b6 07       		.uleb128 0x7
 1524 00b7 40       		.uleb128 0x40
 1525 00b8 18       		.uleb128 0x18
 1526 00b9 9642     		.uleb128 0x2116
 1527 00bb 19       		.uleb128 0x19
 1528 00bc 01       		.uleb128 0x1
 1529 00bd 13       		.uleb128 0x13
 1530 00be 00       		.byte	0
 1531 00bf 00       		.byte	0
 1532 00c0 0D       		.uleb128 0xd
 1533 00c1 34       		.uleb128 0x34
 1534 00c2 00       		.byte	0
 1535 00c3 03       		.uleb128 0x3
 1536 00c4 08       		.uleb128 0x8
 1537 00c5 3A       		.uleb128 0x3a
 1538 00c6 0B       		.uleb128 0xb
 1539 00c7 3B       		.uleb128 0x3b
 1540 00c8 0B       		.uleb128 0xb
 1541 00c9 49       		.uleb128 0x49
 1542 00ca 13       		.uleb128 0x13
 1543 00cb 02       		.uleb128 0x2
 1544 00cc 18       		.uleb128 0x18
 1545 00cd 00       		.byte	0
 1546 00ce 00       		.byte	0
 1547 00cf 0E       		.uleb128 0xe
 1548 00d0 2E       		.uleb128 0x2e
 1549 00d1 01       		.byte	0x1
 1550 00d2 3F       		.uleb128 0x3f
 1551 00d3 19       		.uleb128 0x19
 1552 00d4 03       		.uleb128 0x3
 1553 00d5 0E       		.uleb128 0xe
 1554 00d6 3A       		.uleb128 0x3a
 1555 00d7 0B       		.uleb128 0xb
 1556 00d8 3B       		.uleb128 0x3b
 1557 00d9 0B       		.uleb128 0xb
GAS LISTING /tmp/ccVh8ueE.s 			page 33


 1558 00da 27       		.uleb128 0x27
 1559 00db 19       		.uleb128 0x19
 1560 00dc 49       		.uleb128 0x49
 1561 00dd 13       		.uleb128 0x13
 1562 00de 11       		.uleb128 0x11
 1563 00df 01       		.uleb128 0x1
 1564 00e0 12       		.uleb128 0x12
 1565 00e1 07       		.uleb128 0x7
 1566 00e2 40       		.uleb128 0x40
 1567 00e3 18       		.uleb128 0x18
 1568 00e4 9742     		.uleb128 0x2117
 1569 00e6 19       		.uleb128 0x19
 1570 00e7 01       		.uleb128 0x1
 1571 00e8 13       		.uleb128 0x13
 1572 00e9 00       		.byte	0
 1573 00ea 00       		.byte	0
 1574 00eb 0F       		.uleb128 0xf
 1575 00ec 2E       		.uleb128 0x2e
 1576 00ed 01       		.byte	0x1
 1577 00ee 3F       		.uleb128 0x3f
 1578 00ef 19       		.uleb128 0x19
 1579 00f0 03       		.uleb128 0x3
 1580 00f1 0E       		.uleb128 0xe
 1581 00f2 3A       		.uleb128 0x3a
 1582 00f3 0B       		.uleb128 0xb
 1583 00f4 3B       		.uleb128 0x3b
 1584 00f5 0B       		.uleb128 0xb
 1585 00f6 27       		.uleb128 0x27
 1586 00f7 19       		.uleb128 0x19
 1587 00f8 49       		.uleb128 0x49
 1588 00f9 13       		.uleb128 0x13
 1589 00fa 11       		.uleb128 0x11
 1590 00fb 01       		.uleb128 0x1
 1591 00fc 12       		.uleb128 0x12
 1592 00fd 07       		.uleb128 0x7
 1593 00fe 40       		.uleb128 0x40
 1594 00ff 18       		.uleb128 0x18
 1595 0100 9642     		.uleb128 0x2116
 1596 0102 19       		.uleb128 0x19
 1597 0103 01       		.uleb128 0x1
 1598 0104 13       		.uleb128 0x13
 1599 0105 00       		.byte	0
 1600 0106 00       		.byte	0
 1601 0107 10       		.uleb128 0x10
 1602 0108 34       		.uleb128 0x34
 1603 0109 00       		.byte	0
 1604 010a 03       		.uleb128 0x3
 1605 010b 0E       		.uleb128 0xe
 1606 010c 3A       		.uleb128 0x3a
 1607 010d 0B       		.uleb128 0xb
 1608 010e 3B       		.uleb128 0x3b
 1609 010f 0B       		.uleb128 0xb
 1610 0110 49       		.uleb128 0x49
 1611 0111 13       		.uleb128 0x13
 1612 0112 3F       		.uleb128 0x3f
 1613 0113 19       		.uleb128 0x19
 1614 0114 3C       		.uleb128 0x3c
GAS LISTING /tmp/ccVh8ueE.s 			page 34


 1615 0115 19       		.uleb128 0x19
 1616 0116 00       		.byte	0
 1617 0117 00       		.byte	0
 1618 0118 00       		.byte	0
 1619              		.section	.debug_aranges,"",@progbits
 1620 0000 2C000000 		.long	0x2c
 1621 0004 0200     		.value	0x2
 1622 0006 00000000 		.long	.Ldebug_info0
 1623 000a 08       		.byte	0x8
 1624 000b 00       		.byte	0
 1625 000c 0000     		.value	0
 1626 000e 0000     		.value	0
 1627 0010 00000000 		.quad	.Ltext0
 1627      00000000 
 1628 0018 F5070000 		.quad	.Letext0-.Ltext0
 1628      00000000 
 1629 0020 00000000 		.quad	0
 1629      00000000 
 1630 0028 00000000 		.quad	0
 1630      00000000 
 1631              		.section	.debug_line,"",@progbits
 1632              	.Ldebug_line0:
 1633 0000 92010000 		.section	.debug_str,"MS",@progbits,1
 1633      02006B00 
 1633      00000101 
 1633      FB0E0D00 
 1633      01010101 
 1634              	.LASF15:
 1635 0000 70726F78 		.string	"proxcircle"
 1635      63697263 
 1635      6C6500
 1636              	.LASF17:
 1637 000b 70697865 		.string	"pixel"
 1637      6C00
 1638              	.LASF35:
 1639 0011 636F6F72 		.string	"coordenadas_size"
 1639      64656E61 
 1639      6461735F 
 1639      73697A65 
 1639      00
 1640              	.LASF5:
 1641 0022 73686F72 		.string	"short int"
 1641      7420696E 
 1641      7400
 1642              	.LASF7:
 1643 002c 73697A65 		.string	"sizetype"
 1643      74797065 
 1643      00
 1644              	.LASF53:
 1645 0035 6D617472 		.string	"matriz_temp"
 1645      697A5F74 
 1645      656D7000 
 1646              	.LASF56:
 1647 0041 7072696E 		.string	"print_ballcoord"
 1647      745F6261 
 1647      6C6C636F 
 1647      6F726400 
GAS LISTING /tmp/ccVh8ueE.s 			page 35


 1648              	.LASF23:
 1649 0051 696A5F63 		.string	"ij_cb"
 1649      6200
 1650              	.LASF27:
 1651 0057 696A5F63 		.string	"ij_cr"
 1651      7200
 1652              	.LASF60:
 1653 005d 474E5520 		.string	"GNU C 4.9.3 -mtune=generic -march=x86-64 -ggdb -O0 -fstack-protector-strong"
 1653      4320342E 
 1653      392E3320 
 1653      2D6D7475 
 1653      6E653D67 
 1654              	.LASF14:
 1655 00a9 63697263 		.string	"circle"
 1655      6C6500
 1656              	.LASF62:
 1657 00b0 2F686F6D 		.string	"/home/spvk/Desktop/projeto_robotica/introducao_robotica/master"
 1657      652F7370 
 1657      766B2F44 
 1657      65736B74 
 1657      6F702F70 
 1658              	.LASF31:
 1659 00ef 666C6F61 		.string	"float"
 1659      7400
 1660              	.LASF9:
 1661 00f5 6C6F6E67 		.string	"long long int"
 1661      206C6F6E 
 1661      6720696E 
 1661      7400
 1662              	.LASF34:
 1663 0103 72656769 		.string	"regiao"
 1663      616F00
 1664              	.LASF63:
 1665 010a 6C696D69 		.string	"limiar"
 1665      617200
 1666              	.LASF42:
 1667 0111 74687265 		.string	"threshold"
 1667      73686F6C 
 1667      6400
 1668              	.LASF54:
 1669 011b 6A706766 		.string	"jpgfile"
 1669      696C6500 
 1670              	.LASF6:
 1671 0123 6C6F6E67 		.string	"long int"
 1671      20696E74 
 1671      00
 1672              	.LASF58:
 1673 012c 6E626F6C 		.string	"nbolinhas"
 1673      696E6861 
 1673      7300
 1674              	.LASF33:
 1675 0136 636F6F72 		.string	"coordenadas"
 1675      64656E61 
 1675      64617300 
 1676              	.LASF40:
 1677 0142 626C6F63 		.string	"block"
 1677      6B00
GAS LISTING /tmp/ccVh8ueE.s 			page 36


 1678              	.LASF43:
 1679 0148 70726F74 		.string	"prototipo"
 1679      6F746970 
 1679      6F00
 1680              	.LASF18:
 1681 0152 626C6F63 		.string	"bloco"
 1681      6F00
 1682              	.LASF61:
 1683 0158 2E2F7064 		.string	"./pdi/source/escrita.c"
 1683      692F736F 
 1683      75726365 
 1683      2F657363 
 1683      72697461 
 1684              	.LASF12:
 1685 016f 67726164 		.string	"grad"
 1685      00
 1686              	.LASF47:
 1687 0174 7465616D 		.string	"team1"
 1687      3100
 1688              	.LASF48:
 1689 017a 7465616D 		.string	"team2"
 1689      3200
 1690              	.LASF57:
 1691 0180 626F6C69 		.string	"bolinhas"
 1691      6E686173 
 1691      00
 1692              	.LASF1:
 1693 0189 756E7369 		.string	"unsigned char"
 1693      676E6564 
 1693      20636861 
 1693      7200
 1694              	.LASF19:
 1695 0197 696A5F6C 		.string	"ij_luma"
 1695      756D6100 
 1696              	.LASF36:
 1697 019f 636F6F72 		.string	"coord"
 1697      6400
 1698              	.LASF46:
 1699 01a5 67656E65 		.string	"generate_teams"
 1699      72617465 
 1699      5F746561 
 1699      6D7300
 1700              	.LASF4:
 1701 01b4 7369676E 		.string	"signed char"
 1701      65642063 
 1701      68617200 
 1702              	.LASF51:
 1703 01c0 6572726F 		.string	"erro"
 1703      00
 1704              	.LASF10:
 1705 01c5 6C6F6E67 		.string	"long long unsigned int"
 1705      206C6F6E 
 1705      6720756E 
 1705      7369676E 
 1705      65642069 
 1706              	.LASF3:
 1707 01dc 756E7369 		.string	"unsigned int"
GAS LISTING /tmp/ccVh8ueE.s 			page 37


 1707      676E6564 
 1707      20696E74 
 1707      00
 1708              	.LASF25:
 1709 01e9 69316A5F 		.string	"i1j_cb"
 1709      636200
 1710              	.LASF41:
 1711 01f0 61727175 		.string	"arquivo"
 1711      69766F00 
 1712              	.LASF11:
 1713 01f8 6C756D61 		.string	"luma"
 1713      00
 1714              	.LASF13:
 1715 01fd 70726F78 		.string	"prox"
 1715      00
 1716              	.LASF8:
 1717 0202 63686172 		.string	"char"
 1717      00
 1718              	.LASF22:
 1719 0207 69316A31 		.string	"i1j1_luma"
 1719      5F6C756D 
 1719      6100
 1720              	.LASF29:
 1721 0211 69316A5F 		.string	"i1j_cr"
 1721      637200
 1722              	.LASF2:
 1723 0218 73686F72 		.string	"short unsigned int"
 1723      7420756E 
 1723      7369676E 
 1723      65642069 
 1723      6E7400
 1724              	.LASF20:
 1725 022b 696A315F 		.string	"ij1_luma"
 1725      6C756D61 
 1725      00
 1726              	.LASF44:
 1727 0234 70697874 		.string	"pixteam1"
 1727      65616D31 
 1727      00
 1728              	.LASF45:
 1729 023d 70697874 		.string	"pixteam2"
 1729      65616D32 
 1729      00
 1730              	.LASF0:
 1731 0246 6C6F6E67 		.string	"long unsigned int"
 1731      20756E73 
 1731      69676E65 
 1731      6420696E 
 1731      7400
 1732              	.LASF32:
 1733 0258 646F7562 		.string	"double"
 1733      6C6500
 1734              	.LASF37:
 1735 025f 73697A65 		.string	"size"
 1735      00
 1736              	.LASF24:
 1737 0264 696A315F 		.string	"ij1_cb"
GAS LISTING /tmp/ccVh8ueE.s 			page 38


 1737      636200
 1738              	.LASF50:
 1739 026b 636F6D70 		.string	"compare"
 1739      61726500 
 1740              	.LASF26:
 1741 0273 69316A31 		.string	"i1j1_cb"
 1741      5F636200 
 1742              	.LASF28:
 1743 027b 696A315F 		.string	"ij1_cr"
 1743      637200
 1744              	.LASF21:
 1745 0282 69316A5F 		.string	"i1j_luma"
 1745      6C756D61 
 1745      00
 1746              	.LASF16:
 1747 028b 7465616D 		.string	"team"
 1747      00
 1748              	.LASF49:
 1749 0290 6F726967 		.string	"original"
 1749      696E616C 
 1749      00
 1750              	.LASF30:
 1751 0299 69316A31 		.string	"i1j1_cr"
 1751      5F637200 
 1752              	.LASF38:
 1753 02a1 6D617472 		.string	"matriz"
 1753      697A00
 1754              	.LASF59:
 1755 02a8 68617368 		.string	"hashtag"
 1755      74616700 
 1756              	.LASF39:
 1757 02b0 6D617061 		.string	"mapa"
 1757      00
 1758              	.LASF52:
 1759 02b5 65736372 		.string	"escrita"
 1759      69746100 
 1760              	.LASF55:
 1761 02bd 7069785F 		.string	"pix_erro"
 1761      6572726F 
 1761      00
 1762              		.ident	"GCC: (Gentoo 4.9.3 p1.5, pie-0.6.4) 4.9.3"
 1763              		.section	.note.GNU-stack,"",@progbits
GAS LISTING /tmp/ccVh8ueE.s 			page 39


DEFINED SYMBOLS
                            *ABS*:0000000000000000 escrita.c
     /tmp/ccVh8ueE.s:10     .text:0000000000000000 threshold
     /tmp/ccVh8ueE.s:71     .text:0000000000000095 AI
     /tmp/ccVh8ueE.s:449    .text:0000000000000472 escrita
     /tmp/ccVh8ueE.s:114    .text:00000000000000de generate_teams
     /tmp/ccVh8ueE.s:383    .text:0000000000000407 pix_erro
     /tmp/ccVh8ueE.s:501    .text:00000000000004e6 print_ballcoord

UNDEFINED SYMBOLS
limiar
malloc
alocate
dealocate
printf
detect_regiaoteam
lumcbcr_medium
open
perror
exit
write
puts
close
detect_regiao
generate_hashtag
free
