GAS LISTING /tmp/ccVh8ueE.s 			page 1


   1              		.file	"escrita.c"
   2              		.text
   3              	.Ltext0:
   4              		.section	.rodata
   5              	.LC0:
   6 0000 56616C6F 		.string	"Valor do limiar: %d\n"
   6      7220646F 
   6      206C696D 
   6      6961723A 
   6      2025640A 
   7              		.text
   8              		.globl	threshold
   9              		.type	threshold, @function
  10              	threshold:
  11              	.LFB2:
  12              		.file 1 "./pdi/source/escrita.c"
   1:./pdi/source/escrita.c **** #include "../headers/cabecalho.h"
   2:./pdi/source/escrita.c **** 
   3:./pdi/source/escrita.c **** void threshold (struct pixel **matriz, unsigned char *mapa, struct bloco *block, char *arquivo) {
  13              		.loc 1 3 0
  14              		.cfi_startproc
  15 0000 55       		pushq	%rbp
  16              		.cfi_def_cfa_offset 16
  17              		.cfi_offset 6, -16
  18 0001 4889E5   		movq	%rsp, %rbp
  19              		.cfi_def_cfa_register 6
  20 0004 4883EC30 		subq	$48, %rsp
  21 0008 48897DE8 		movq	%rdi, -24(%rbp)
  22 000c 488975E0 		movq	%rsi, -32(%rbp)
  23 0010 488955D8 		movq	%rdx, -40(%rbp)
  24 0014 48894DD0 		movq	%rcx, -48(%rbp)
   4:./pdi/source/escrita.c **** 	limiar=10;
  25              		.loc 1 4 0
  26 0018 C7050000 		movl	$10, limiar(%rip)
  26      00000A00 
  26      0000
   5:./pdi/source/escrita.c **** 	unsigned char *prototipo;
   6:./pdi/source/escrita.c ****         prototipo = malloc(altura*largura*2);
  27              		.loc 1 6 0
  28 0022 BF006009 		movl	$614400, %edi
  28      00
  29 0027 E8000000 		call	malloc
  29      00
  30 002c 488945F8 		movq	%rax, -8(%rbp)
   7:./pdi/source/escrita.c **** 	alocate(matriz,mapa);
  31              		.loc 1 7 0
  32 0030 488B55E0 		movq	-32(%rbp), %rdx
  33 0034 488B45E8 		movq	-24(%rbp), %rax
  34 0038 4889D6   		movq	%rdx, %rsi
  35 003b 4889C7   		movq	%rax, %rdi
  36 003e E8000000 		call	alocate
  36      00
   8:./pdi/source/escrita.c **** 	
   9:./pdi/source/escrita.c **** 	/*
  10:./pdi/source/escrita.c **** 	array_bloco(block, matriz);
  11:./pdi/source/escrita.c **** 	generate_grad(matriz, block);	
  12:./pdi/source/escrita.c **** 	generate_prox(matriz);
GAS LISTING /tmp/ccVh8ueE.s 			page 2


  13:./pdi/source/escrita.c **** 	shrink(matriz, 4);
  14:./pdi/source/escrita.c **** 	generate_prox(matriz);
  15:./pdi/source/escrita.c **** 	swell(matriz, 6);
  16:./pdi/source/escrita.c **** 	
  17:./pdi/source/escrita.c **** 	detect_circle(matriz);
  18:./pdi/source/escrita.c **** 	generate_proxcircle(matriz);
  19:./pdi/source/escrita.c **** 	shrink_circle(matriz, 5);
  20:./pdi/source/escrita.c **** 	generate_proxcircle(matriz);
  21:./pdi/source/escrita.c **** 	        
  22:./pdi/source/escrita.c **** 	struct coordenadas_size aux = detect_regiao(matriz);
  23:./pdi/source/escrita.c **** 	struct coordenadas *bolinhas = aux.coord;
  24:./pdi/source/escrita.c **** 	aux.coord = NULL;
  25:./pdi/source/escrita.c **** 	int nbolinhas = aux.size;
  26:./pdi/source/escrita.c **** 	struct coordenadas *hashtag = generate_hashtag(bolinhas, nbolinhas);
  27:./pdi/source/escrita.c **** 
  28:./pdi/source/escrita.c **** 	for (int j = 0; j < nbolinhas; j++){
  29:./pdi/source/escrita.c **** 		printf("Bolinha: %d Centro X : %d Centro Y: %d\n", j+1, bolinhas[j].X, bolinhas[j].Y);
  30:./pdi/source/escrita.c **** 	}
  31:./pdi/source/escrita.c **** 	for (int i = 0; i < 9; i++) printf("%d) X: %d Y: %d\n", i, hashtag[i].X, hashtag[i].Y);
  32:./pdi/source/escrita.c **** 	*/
  33:./pdi/source/escrita.c **** 
  34:./pdi/source/escrita.c **** 	AI(matriz);
  37              		.loc 1 34 0
  38 0043 488B45E8 		movq	-24(%rbp), %rax
  39 0047 4889C7   		movq	%rax, %rdi
  40 004a E8000000 		call	AI
  40      00
  35:./pdi/source/escrita.c **** 	
  36:./pdi/source/escrita.c **** 	//free(bolinhas);
  37:./pdi/source/escrita.c **** 	//free(hashtag);
  38:./pdi/source/escrita.c **** 	dealocate(matriz, prototipo);
  41              		.loc 1 38 0
  42 004f 488B55F8 		movq	-8(%rbp), %rdx
  43 0053 488B45E8 		movq	-24(%rbp), %rax
  44 0057 4889D6   		movq	%rdx, %rsi
  45 005a 4889C7   		movq	%rax, %rdi
  46 005d E8000000 		call	dealocate
  46      00
  39:./pdi/source/escrita.c **** 	arquivo[0]='0' + 0; //Cheat de converter o inteiro para char
  47              		.loc 1 39 0
  48 0062 488B45D0 		movq	-48(%rbp), %rax
  49 0066 C60030   		movb	$48, (%rax)
  40:./pdi/source/escrita.c **** 	escrita(arquivo, prototipo);
  50              		.loc 1 40 0
  51 0069 488B55F8 		movq	-8(%rbp), %rdx
  52 006d 488B45D0 		movq	-48(%rbp), %rax
  53 0071 4889D6   		movq	%rdx, %rsi
  54 0074 4889C7   		movq	%rax, %rdi
  55 0077 E8000000 		call	escrita
  55      00
  41:./pdi/source/escrita.c **** 	printf("Valor do limiar: %d\n", limiar);
  56              		.loc 1 41 0
  57 007c 8B050000 		movl	limiar(%rip), %eax
  57      0000
  58 0082 89C6     		movl	%eax, %esi
  59 0084 BF000000 		movl	$.LC0, %edi
  59      00
GAS LISTING /tmp/ccVh8ueE.s 			page 3


  60 0089 B8000000 		movl	$0, %eax
  60      00
  61 008e E8000000 		call	printf
  61      00
  42:./pdi/source/escrita.c **** }
  62              		.loc 1 42 0
  63 0093 C9       		leave
  64              		.cfi_def_cfa 7, 8
  65 0094 C3       		ret
  66              		.cfi_endproc
  67              	.LFE2:
  68              		.size	threshold, .-threshold
  69              		.globl	AI
  70              		.type	AI, @function
  71              	AI:
  72              	.LFB3:
  43:./pdi/source/escrita.c **** 
  44:./pdi/source/escrita.c **** 
  45:./pdi/source/escrita.c **** void AI(struct pixel **matriz)
  46:./pdi/source/escrita.c **** {
  73              		.loc 1 46 0
  74              		.cfi_startproc
  75 0095 55       		pushq	%rbp
  76              		.cfi_def_cfa_offset 16
  77              		.cfi_offset 6, -16
  78 0096 4889E5   		movq	%rsp, %rbp
  79              		.cfi_def_cfa_register 6
  80 0099 4883EC30 		subq	$48, %rsp
  81 009d 48897DD8 		movq	%rdi, -40(%rbp)
  47:./pdi/source/escrita.c **** 	    
  48:./pdi/source/escrita.c **** 	struct pixel pixteam1; //verde
  49:./pdi/source/escrita.c **** 	pixteam1.luma = 182;
  82              		.loc 1 49 0
  83 00a1 C645E0B6 		movb	$-74, -32(%rbp)
  50:./pdi/source/escrita.c **** 	pixteam1.cb = 104;
  84              		.loc 1 50 0
  85 00a5 C645E168 		movb	$104, -31(%rbp)
  51:./pdi/source/escrita.c **** 	pixteam1.cr = 115;
  86              		.loc 1 51 0
  87 00a9 C645E273 		movb	$115, -30(%rbp)
  52:./pdi/source/escrita.c **** 	struct pixel pixteam2; //vermelho
  53:./pdi/source/escrita.c **** 	pixteam2.luma = 144;
  88              		.loc 1 53 0
  89 00ad C645F090 		movb	$-112, -16(%rbp)
  54:./pdi/source/escrita.c **** 	pixteam2.cb = 122;
  90              		.loc 1 54 0
  91 00b1 C645F17A 		movb	$122, -15(%rbp)
  55:./pdi/source/escrita.c **** 	pixteam2.cr = 159;
  92              		.loc 1 55 0
  93 00b5 C645F29F 		movb	$-97, -14(%rbp)
  56:./pdi/source/escrita.c **** 
  57:./pdi/source/escrita.c **** 	generate_teams(matriz, pixteam1, pixteam2);
  94              		.loc 1 57 0
  95 00b9 488B55F0 		movq	-16(%rbp), %rdx
  96 00bd 488B4DE0 		movq	-32(%rbp), %rcx
  97 00c1 488B45D8 		movq	-40(%rbp), %rax
  98 00c5 4889CE   		movq	%rcx, %rsi
GAS LISTING /tmp/ccVh8ueE.s 			page 4


  99 00c8 4889C7   		movq	%rax, %rdi
 100 00cb E8000000 		call	generate_teams
 100      00
  58:./pdi/source/escrita.c **** 	detect_regiaoteam(matriz);
 101              		.loc 1 58 0
 102 00d0 488B45D8 		movq	-40(%rbp), %rax
 103 00d4 4889C7   		movq	%rax, %rdi
 104 00d7 E8000000 		call	detect_regiaoteam
 104      00
  59:./pdi/source/escrita.c **** }
 105              		.loc 1 59 0
 106 00dc C9       		leave
 107              		.cfi_def_cfa 7, 8
 108 00dd C3       		ret
 109              		.cfi_endproc
 110              	.LFE3:
 111              		.size	AI, .-AI
 112              		.globl	generate_teams
 113              		.type	generate_teams, @function
 114              	generate_teams:
 115              	.LFB4:
  60:./pdi/source/escrita.c **** 
  61:./pdi/source/escrita.c **** void generate_teams(struct pixel **matriz, struct pixel team1, struct pixel team2)
  62:./pdi/source/escrita.c **** {
 116              		.loc 1 62 0
 117              		.cfi_startproc
 118 00de 55       		pushq	%rbp
 119              		.cfi_def_cfa_offset 16
 120              		.cfi_offset 6, -16
 121 00df 4889E5   		movq	%rsp, %rbp
 122              		.cfi_def_cfa_register 6
 123 00e2 4883EC40 		subq	$64, %rsp
 124 00e6 48897DD8 		movq	%rdi, -40(%rbp)
 125 00ea 488975D0 		movq	%rsi, -48(%rbp)
 126 00ee 488955C0 		movq	%rdx, -64(%rbp)
  63:./pdi/source/escrita.c **** 	struct pixel tmp;
  64:./pdi/source/escrita.c **** 	int i,j;
  65:./pdi/source/escrita.c **** 	for (i = altmin; i < altmax; i++) {
 127              		.loc 1 65 0
 128 00f2 C745E86E 		movl	$110, -24(%rbp)
 128      000000
 129 00f9 E9E40000 		jmp	.L4
 129      00
 130              	.L9:
  66:./pdi/source/escrita.c **** 		for (j = largmin; j < largmax; j++) {
 131              		.loc 1 66 0
 132 00fe C745EC54 		movl	$340, -20(%rbp)
 132      010000
 133 0105 E9C70000 		jmp	.L5
 133      00
 134              	.L8:
  67:./pdi/source/escrita.c **** 			tmp = lumcbcr_medium(matriz, i, j, 8);
 135              		.loc 1 67 0
 136 010a 8B55EC   		movl	-20(%rbp), %edx
 137 010d 8B75E8   		movl	-24(%rbp), %esi
 138 0110 488B45D8 		movq	-40(%rbp), %rax
 139 0114 B9080000 		movl	$8, %ecx
GAS LISTING /tmp/ccVh8ueE.s 			page 5


 139      00
 140 0119 4889C7   		movq	%rax, %rdi
 141 011c E8000000 		call	lumcbcr_medium
 141      00
 142 0121 488945F0 		movq	%rax, -16(%rbp)
  68:./pdi/source/escrita.c **** 			matriz[i][j].team = 0;
 143              		.loc 1 68 0
 144 0125 8B45E8   		movl	-24(%rbp), %eax
 145 0128 4898     		cltq
 146 012a 488D14C5 		leaq	0(,%rax,8), %rdx
 146      00000000 
 147 0132 488B45D8 		movq	-40(%rbp), %rax
 148 0136 4801D0   		addq	%rdx, %rax
 149 0139 488B00   		movq	(%rax), %rax
 150 013c 8B55EC   		movl	-20(%rbp), %edx
 151 013f 4863D2   		movslq	%edx, %rdx
 152 0142 48C1E203 		salq	$3, %rdx
 153 0146 4801D0   		addq	%rdx, %rax
 154 0149 C6400700 		movb	$0, 7(%rax)
  69:./pdi/source/escrita.c **** 			if (pix_erro(tmp, team1) < 20) matriz[i][j].team = 1;
 155              		.loc 1 69 0
 156 014d 488B55D0 		movq	-48(%rbp), %rdx
 157 0151 488B45F0 		movq	-16(%rbp), %rax
 158 0155 4889D6   		movq	%rdx, %rsi
 159 0158 4889C7   		movq	%rax, %rdi
 160 015b E8000000 		call	pix_erro
 160      00
 161 0160 83F813   		cmpl	$19, %eax
 162 0163 7F28     		jg	.L6
 163              		.loc 1 69 0 is_stmt 0 discriminator 1
 164 0165 8B45E8   		movl	-24(%rbp), %eax
 165 0168 4898     		cltq
 166 016a 488D14C5 		leaq	0(,%rax,8), %rdx
 166      00000000 
 167 0172 488B45D8 		movq	-40(%rbp), %rax
 168 0176 4801D0   		addq	%rdx, %rax
 169 0179 488B00   		movq	(%rax), %rax
 170 017c 8B55EC   		movl	-20(%rbp), %edx
 171 017f 4863D2   		movslq	%edx, %rdx
 172 0182 48C1E203 		salq	$3, %rdx
 173 0186 4801D0   		addq	%rdx, %rax
 174 0189 C6400701 		movb	$1, 7(%rax)
 175              	.L6:
  70:./pdi/source/escrita.c **** 			if (pix_erro(tmp, team2) < 20) matriz[i][j].team = 2;
 176              		.loc 1 70 0 is_stmt 1
 177 018d 488B55C0 		movq	-64(%rbp), %rdx
 178 0191 488B45F0 		movq	-16(%rbp), %rax
 179 0195 4889D6   		movq	%rdx, %rsi
 180 0198 4889C7   		movq	%rax, %rdi
 181 019b E8000000 		call	pix_erro
 181      00
 182 01a0 83F813   		cmpl	$19, %eax
 183 01a3 7F28     		jg	.L7
 184              		.loc 1 70 0 is_stmt 0 discriminator 1
 185 01a5 8B45E8   		movl	-24(%rbp), %eax
 186 01a8 4898     		cltq
 187 01aa 488D14C5 		leaq	0(,%rax,8), %rdx
GAS LISTING /tmp/ccVh8ueE.s 			page 6


 187      00000000 
 188 01b2 488B45D8 		movq	-40(%rbp), %rax
 189 01b6 4801D0   		addq	%rdx, %rax
 190 01b9 488B00   		movq	(%rax), %rax
 191 01bc 8B55EC   		movl	-20(%rbp), %edx
 192 01bf 4863D2   		movslq	%edx, %rdx
 193 01c2 48C1E203 		salq	$3, %rdx
 194 01c6 4801D0   		addq	%rdx, %rax
 195 01c9 C6400702 		movb	$2, 7(%rax)
 196              	.L7:
  66:./pdi/source/escrita.c **** 			tmp = lumcbcr_medium(matriz, i, j, 8);
 197              		.loc 1 66 0 is_stmt 1 discriminator 2
 198 01cd 8345EC01 		addl	$1, -20(%rbp)
 199              	.L5:
  66:./pdi/source/escrita.c **** 			tmp = lumcbcr_medium(matriz, i, j, 8);
 200              		.loc 1 66 0 is_stmt 0 discriminator 1
 201 01d1 817DEC20 		cmpl	$544, -20(%rbp)
 201      020000
 202 01d8 0F8E2CFF 		jle	.L8
 202      FFFF
  65:./pdi/source/escrita.c **** 		for (j = largmin; j < largmax; j++) {
 203              		.loc 1 65 0 is_stmt 1 discriminator 2
 204 01de 8345E801 		addl	$1, -24(%rbp)
 205              	.L4:
  65:./pdi/source/escrita.c **** 		for (j = largmin; j < largmax; j++) {
 206              		.loc 1 65 0 is_stmt 0 discriminator 1
 207 01e2 817DE86B 		cmpl	$363, -24(%rbp)
 207      010000
 208 01e9 0F8E0FFF 		jle	.L9
 208      FFFF
  71:./pdi/source/escrita.c **** 		}
  72:./pdi/source/escrita.c **** 	}
  73:./pdi/source/escrita.c **** 
  74:./pdi/source/escrita.c **** 	for (i = altmin; i < altmax; i++) {
 209              		.loc 1 74 0 is_stmt 1
 210 01ef C745E86E 		movl	$110, -24(%rbp)
 210      000000
 211 01f6 E9FD0100 		jmp	.L10
 211      00
 212              	.L15:
  75:./pdi/source/escrita.c **** 		for (j = largmin; j < largmax; j++) {
 213              		.loc 1 75 0
 214 01fb C745EC54 		movl	$340, -20(%rbp)
 214      010000
 215 0202 E9E00100 		jmp	.L11
 215      00
 216              	.L14:
  76:./pdi/source/escrita.c **** 			matriz[i][j].luma = 0;
 217              		.loc 1 76 0
 218 0207 8B45E8   		movl	-24(%rbp), %eax
 219 020a 4898     		cltq
 220 020c 488D14C5 		leaq	0(,%rax,8), %rdx
 220      00000000 
 221 0214 488B45D8 		movq	-40(%rbp), %rax
 222 0218 4801D0   		addq	%rdx, %rax
 223 021b 488B00   		movq	(%rax), %rax
 224 021e 8B55EC   		movl	-20(%rbp), %edx
GAS LISTING /tmp/ccVh8ueE.s 			page 7


 225 0221 4863D2   		movslq	%edx, %rdx
 226 0224 48C1E203 		salq	$3, %rdx
 227 0228 4801D0   		addq	%rdx, %rax
 228 022b C60000   		movb	$0, (%rax)
  77:./pdi/source/escrita.c **** 			matriz[i][j].cb = 128;
 229              		.loc 1 77 0
 230 022e 8B45E8   		movl	-24(%rbp), %eax
 231 0231 4898     		cltq
 232 0233 488D14C5 		leaq	0(,%rax,8), %rdx
 232      00000000 
 233 023b 488B45D8 		movq	-40(%rbp), %rax
 234 023f 4801D0   		addq	%rdx, %rax
 235 0242 488B00   		movq	(%rax), %rax
 236 0245 8B55EC   		movl	-20(%rbp), %edx
 237 0248 4863D2   		movslq	%edx, %rdx
 238 024b 48C1E203 		salq	$3, %rdx
 239 024f 4801D0   		addq	%rdx, %rax
 240 0252 C6400180 		movb	$-128, 1(%rax)
  78:./pdi/source/escrita.c **** 			matriz[i][j].cr = 128;
 241              		.loc 1 78 0
 242 0256 8B45E8   		movl	-24(%rbp), %eax
 243 0259 4898     		cltq
 244 025b 488D14C5 		leaq	0(,%rax,8), %rdx
 244      00000000 
 245 0263 488B45D8 		movq	-40(%rbp), %rax
 246 0267 4801D0   		addq	%rdx, %rax
 247 026a 488B00   		movq	(%rax), %rax
 248 026d 8B55EC   		movl	-20(%rbp), %edx
 249 0270 4863D2   		movslq	%edx, %rdx
 250 0273 48C1E203 		salq	$3, %rdx
 251 0277 4801D0   		addq	%rdx, %rax
 252 027a C6400280 		movb	$-128, 2(%rax)
  79:./pdi/source/escrita.c **** 			if (matriz[i][j].team == 1) {
 253              		.loc 1 79 0
 254 027e 8B45E8   		movl	-24(%rbp), %eax
 255 0281 4898     		cltq
 256 0283 488D14C5 		leaq	0(,%rax,8), %rdx
 256      00000000 
 257 028b 488B45D8 		movq	-40(%rbp), %rax
 258 028f 4801D0   		addq	%rdx, %rax
 259 0292 488B00   		movq	(%rax), %rax
 260 0295 8B55EC   		movl	-20(%rbp), %edx
 261 0298 4863D2   		movslq	%edx, %rdx
 262 029b 48C1E203 		salq	$3, %rdx
 263 029f 4801D0   		addq	%rdx, %rax
 264 02a2 0FB64007 		movzbl	7(%rax), %eax
 265 02a6 3C01     		cmpb	$1, %al
 266 02a8 0F858500 		jne	.L12
 266      0000
  80:./pdi/source/escrita.c **** 				matriz[i][j].luma = team1.luma;
 267              		.loc 1 80 0
 268 02ae 8B45E8   		movl	-24(%rbp), %eax
 269 02b1 4898     		cltq
 270 02b3 488D14C5 		leaq	0(,%rax,8), %rdx
 270      00000000 
 271 02bb 488B45D8 		movq	-40(%rbp), %rax
 272 02bf 4801D0   		addq	%rdx, %rax
GAS LISTING /tmp/ccVh8ueE.s 			page 8


 273 02c2 488B00   		movq	(%rax), %rax
 274 02c5 8B55EC   		movl	-20(%rbp), %edx
 275 02c8 4863D2   		movslq	%edx, %rdx
 276 02cb 48C1E203 		salq	$3, %rdx
 277 02cf 4801C2   		addq	%rax, %rdx
 278 02d2 0FB645D0 		movzbl	-48(%rbp), %eax
 279 02d6 8802     		movb	%al, (%rdx)
  81:./pdi/source/escrita.c **** 				matriz[i][j].cb = team1.cb;
 280              		.loc 1 81 0
 281 02d8 8B45E8   		movl	-24(%rbp), %eax
 282 02db 4898     		cltq
 283 02dd 488D14C5 		leaq	0(,%rax,8), %rdx
 283      00000000 
 284 02e5 488B45D8 		movq	-40(%rbp), %rax
 285 02e9 4801D0   		addq	%rdx, %rax
 286 02ec 488B00   		movq	(%rax), %rax
 287 02ef 8B55EC   		movl	-20(%rbp), %edx
 288 02f2 4863D2   		movslq	%edx, %rdx
 289 02f5 48C1E203 		salq	$3, %rdx
 290 02f9 4801C2   		addq	%rax, %rdx
 291 02fc 0FB645D1 		movzbl	-47(%rbp), %eax
 292 0300 884201   		movb	%al, 1(%rdx)
  82:./pdi/source/escrita.c **** 				matriz[i][j].cr = team1.cr;
 293              		.loc 1 82 0
 294 0303 8B45E8   		movl	-24(%rbp), %eax
 295 0306 4898     		cltq
 296 0308 488D14C5 		leaq	0(,%rax,8), %rdx
 296      00000000 
 297 0310 488B45D8 		movq	-40(%rbp), %rax
 298 0314 4801D0   		addq	%rdx, %rax
 299 0317 488B00   		movq	(%rax), %rax
 300 031a 8B55EC   		movl	-20(%rbp), %edx
 301 031d 4863D2   		movslq	%edx, %rdx
 302 0320 48C1E203 		salq	$3, %rdx
 303 0324 4801C2   		addq	%rax, %rdx
 304 0327 0FB645D2 		movzbl	-46(%rbp), %eax
 305 032b 884202   		movb	%al, 2(%rdx)
 306 032e E9B00000 		jmp	.L13
 306      00
 307              	.L12:
  83:./pdi/source/escrita.c **** 			} else if (matriz[i][j].team == 2) {
 308              		.loc 1 83 0
 309 0333 8B45E8   		movl	-24(%rbp), %eax
 310 0336 4898     		cltq
 311 0338 488D14C5 		leaq	0(,%rax,8), %rdx
 311      00000000 
 312 0340 488B45D8 		movq	-40(%rbp), %rax
 313 0344 4801D0   		addq	%rdx, %rax
 314 0347 488B00   		movq	(%rax), %rax
 315 034a 8B55EC   		movl	-20(%rbp), %edx
 316 034d 4863D2   		movslq	%edx, %rdx
 317 0350 48C1E203 		salq	$3, %rdx
 318 0354 4801D0   		addq	%rdx, %rax
 319 0357 0FB64007 		movzbl	7(%rax), %eax
 320 035b 3C02     		cmpb	$2, %al
 321 035d 0F858000 		jne	.L13
 321      0000
GAS LISTING /tmp/ccVh8ueE.s 			page 9


  84:./pdi/source/escrita.c **** 				matriz[i][j].luma = team2.luma;
 322              		.loc 1 84 0
 323 0363 8B45E8   		movl	-24(%rbp), %eax
 324 0366 4898     		cltq
 325 0368 488D14C5 		leaq	0(,%rax,8), %rdx
 325      00000000 
 326 0370 488B45D8 		movq	-40(%rbp), %rax
 327 0374 4801D0   		addq	%rdx, %rax
 328 0377 488B00   		movq	(%rax), %rax
 329 037a 8B55EC   		movl	-20(%rbp), %edx
 330 037d 4863D2   		movslq	%edx, %rdx
 331 0380 48C1E203 		salq	$3, %rdx
 332 0384 4801C2   		addq	%rax, %rdx
 333 0387 0FB645C0 		movzbl	-64(%rbp), %eax
 334 038b 8802     		movb	%al, (%rdx)
  85:./pdi/source/escrita.c **** 				matriz[i][j].cb = team2.cb;
 335              		.loc 1 85 0
 336 038d 8B45E8   		movl	-24(%rbp), %eax
 337 0390 4898     		cltq
 338 0392 488D14C5 		leaq	0(,%rax,8), %rdx
 338      00000000 
 339 039a 488B45D8 		movq	-40(%rbp), %rax
 340 039e 4801D0   		addq	%rdx, %rax
 341 03a1 488B00   		movq	(%rax), %rax
 342 03a4 8B55EC   		movl	-20(%rbp), %edx
 343 03a7 4863D2   		movslq	%edx, %rdx
 344 03aa 48C1E203 		salq	$3, %rdx
 345 03ae 4801C2   		addq	%rax, %rdx
 346 03b1 0FB645C1 		movzbl	-63(%rbp), %eax
 347 03b5 884201   		movb	%al, 1(%rdx)
  86:./pdi/source/escrita.c **** 				matriz[i][j].cr = team2.cr;
 348              		.loc 1 86 0
 349 03b8 8B45E8   		movl	-24(%rbp), %eax
 350 03bb 4898     		cltq
 351 03bd 488D14C5 		leaq	0(,%rax,8), %rdx
 351      00000000 
 352 03c5 488B45D8 		movq	-40(%rbp), %rax
 353 03c9 4801D0   		addq	%rdx, %rax
 354 03cc 488B00   		movq	(%rax), %rax
 355 03cf 8B55EC   		movl	-20(%rbp), %edx
 356 03d2 4863D2   		movslq	%edx, %rdx
 357 03d5 48C1E203 		salq	$3, %rdx
 358 03d9 4801C2   		addq	%rax, %rdx
 359 03dc 0FB645C2 		movzbl	-62(%rbp), %eax
 360 03e0 884202   		movb	%al, 2(%rdx)
 361              	.L13:
  75:./pdi/source/escrita.c **** 			matriz[i][j].luma = 0;
 362              		.loc 1 75 0 discriminator 2
 363 03e3 8345EC01 		addl	$1, -20(%rbp)
 364              	.L11:
  75:./pdi/source/escrita.c **** 			matriz[i][j].luma = 0;
 365              		.loc 1 75 0 is_stmt 0 discriminator 1
 366 03e7 817DEC20 		cmpl	$544, -20(%rbp)
 366      020000
 367 03ee 0F8E13FE 		jle	.L14
 367      FFFF
  74:./pdi/source/escrita.c **** 		for (j = largmin; j < largmax; j++) {
GAS LISTING /tmp/ccVh8ueE.s 			page 10


 368              		.loc 1 74 0 is_stmt 1 discriminator 2
 369 03f4 8345E801 		addl	$1, -24(%rbp)
 370              	.L10:
  74:./pdi/source/escrita.c **** 		for (j = largmin; j < largmax; j++) {
 371              		.loc 1 74 0 is_stmt 0 discriminator 1
 372 03f8 817DE86B 		cmpl	$363, -24(%rbp)
 372      010000
 373 03ff 0F8EF6FD 		jle	.L15
 373      FFFF
  87:./pdi/source/escrita.c **** 			}
  88:./pdi/source/escrita.c **** 		}
  89:./pdi/source/escrita.c **** 	}
  90:./pdi/source/escrita.c **** }
 374              		.loc 1 90 0 is_stmt 1
 375 0405 C9       		leave
 376              		.cfi_def_cfa 7, 8
 377 0406 C3       		ret
 378              		.cfi_endproc
 379              	.LFE4:
 380              		.size	generate_teams, .-generate_teams
 381              		.globl	pix_erro
 382              		.type	pix_erro, @function
 383              	pix_erro:
 384              	.LFB5:
  91:./pdi/source/escrita.c **** 
  92:./pdi/source/escrita.c **** int pix_erro(struct pixel original, struct pixel compare){
 385              		.loc 1 92 0
 386              		.cfi_startproc
 387 0407 55       		pushq	%rbp
 388              		.cfi_def_cfa_offset 16
 389              		.cfi_offset 6, -16
 390 0408 4889E5   		movq	%rsp, %rbp
 391              		.cfi_def_cfa_register 6
 392 040b 48897DE0 		movq	%rdi, -32(%rbp)
 393 040f 488975D0 		movq	%rsi, -48(%rbp)
  93:./pdi/source/escrita.c **** 	int erro = 0;
 394              		.loc 1 93 0
 395 0413 C745FC00 		movl	$0, -4(%rbp)
 395      000000
  94:./pdi/source/escrita.c **** 	erro = abs(original.luma - compare.luma) + 
 396              		.loc 1 94 0
 397 041a 0FB645E0 		movzbl	-32(%rbp), %eax
 398 041e 0FB6D0   		movzbl	%al, %edx
 399 0421 0FB645D0 		movzbl	-48(%rbp), %eax
 400 0425 0FB6C0   		movzbl	%al, %eax
 401 0428 29C2     		subl	%eax, %edx
 402 042a 89D0     		movl	%edx, %eax
 403 042c C1F81F   		sarl	$31, %eax
 404 042f 31C2     		xorl	%eax, %edx
 405 0431 29C2     		subl	%eax, %edx
  95:./pdi/source/escrita.c **** 		abs(original.cb - compare.cb) +
 406              		.loc 1 95 0
 407 0433 0FB645E1 		movzbl	-31(%rbp), %eax
 408 0437 0FB6C8   		movzbl	%al, %ecx
 409 043a 0FB645D1 		movzbl	-47(%rbp), %eax
 410 043e 0FB6C0   		movzbl	%al, %eax
 411 0441 29C1     		subl	%eax, %ecx
GAS LISTING /tmp/ccVh8ueE.s 			page 11


 412 0443 89C8     		movl	%ecx, %eax
 413 0445 89C1     		movl	%eax, %ecx
 414 0447 C1F91F   		sarl	$31, %ecx
 415 044a 31C8     		xorl	%ecx, %eax
 416 044c 29C8     		subl	%ecx, %eax
  94:./pdi/source/escrita.c **** 	erro = abs(original.luma - compare.luma) + 
 417              		.loc 1 94 0
 418 044e 8D0C02   		leal	(%rdx,%rax), %ecx
  96:./pdi/source/escrita.c **** 		abs(original.cr - compare.cr);
 419              		.loc 1 96 0
 420 0451 0FB645E2 		movzbl	-30(%rbp), %eax
 421 0455 0FB6D0   		movzbl	%al, %edx
 422 0458 0FB645D2 		movzbl	-46(%rbp), %eax
 423 045c 0FB6C0   		movzbl	%al, %eax
 424 045f 29C2     		subl	%eax, %edx
 425 0461 89D0     		movl	%edx, %eax
 426 0463 99       		cltd
 427 0464 31D0     		xorl	%edx, %eax
 428 0466 29D0     		subl	%edx, %eax
  94:./pdi/source/escrita.c **** 	erro = abs(original.luma - compare.luma) + 
 429              		.loc 1 94 0
 430 0468 01C8     		addl	%ecx, %eax
 431 046a 8945FC   		movl	%eax, -4(%rbp)
  97:./pdi/source/escrita.c **** 	return erro;
 432              		.loc 1 97 0
 433 046d 8B45FC   		movl	-4(%rbp), %eax
  98:./pdi/source/escrita.c **** }
 434              		.loc 1 98 0
 435 0470 5D       		popq	%rbp
 436              		.cfi_def_cfa 7, 8
 437 0471 C3       		ret
 438              		.cfi_endproc
 439              	.LFE5:
 440              		.size	pix_erro, .-pix_erro
 441              		.section	.rodata
 442              	.LC1:
 443 0015 6F70656E 		.string	"open"
 443      00
 444              	.LC2:
 445 001a 4572726F 		.string	"Erro ao escrever"
 445      20616F20 
 445      65736372 
 445      65766572 
 445      00
 446              		.text
 447              		.globl	escrita
 448              		.type	escrita, @function
 449              	escrita:
 450              	.LFB6:
  99:./pdi/source/escrita.c **** 
 100:./pdi/source/escrita.c **** 
 101:./pdi/source/escrita.c **** 
 102:./pdi/source/escrita.c **** void escrita(char *arquivo, unsigned char* matriz_temp) {
 451              		.loc 1 102 0
 452              		.cfi_startproc
 453 0472 55       		pushq	%rbp
 454              		.cfi_def_cfa_offset 16
GAS LISTING /tmp/ccVh8ueE.s 			page 12


 455              		.cfi_offset 6, -16
 456 0473 4889E5   		movq	%rsp, %rbp
 457              		.cfi_def_cfa_register 6
 458 0476 4883EC20 		subq	$32, %rsp
 459 047a 48897DE8 		movq	%rdi, -24(%rbp)
 460 047e 488975E0 		movq	%rsi, -32(%rbp)
 103:./pdi/source/escrita.c **** 	int jpgfile;
 104:./pdi/source/escrita.c ****         if((jpgfile = open(arquivo, O_WRONLY | O_CREAT, 0660)) < 0){
 461              		.loc 1 104 0
 462 0482 488B45E8 		movq	-24(%rbp), %rax
 463 0486 BAB00100 		movl	$432, %edx
 463      00
 464 048b BE410000 		movl	$65, %esi
 464      00
 465 0490 4889C7   		movq	%rax, %rdi
 466 0493 B8000000 		movl	$0, %eax
 466      00
 467 0498 E8000000 		call	open
 467      00
 468 049d 8945FC   		movl	%eax, -4(%rbp)
 469 04a0 837DFC00 		cmpl	$0, -4(%rbp)
 470 04a4 7914     		jns	.L19
 105:./pdi/source/escrita.c ****             perror("open");
 471              		.loc 1 105 0
 472 04a6 BF000000 		movl	$.LC1, %edi
 472      00
 473 04ab E8000000 		call	perror
 473      00
 106:./pdi/source/escrita.c ****             exit(1);
 474              		.loc 1 106 0
 475 04b0 BF010000 		movl	$1, %edi
 475      00
 476 04b5 E8000000 		call	exit
 476      00
 477              	.L19:
 107:./pdi/source/escrita.c **** 
 108:./pdi/source/escrita.c ****         }
 109:./pdi/source/escrita.c **** 
 110:./pdi/source/escrita.c ****         if(write(jpgfile, matriz_temp, altura*largura*2) < 0);
 478              		.loc 1 110 0
 479 04ba 488B4DE0 		movq	-32(%rbp), %rcx
 480 04be 8B45FC   		movl	-4(%rbp), %eax
 481 04c1 BA006009 		movl	$614400, %edx
 481      00
 482 04c6 4889CE   		movq	%rcx, %rsi
 483 04c9 89C7     		movl	%eax, %edi
 484 04cb E8000000 		call	write
 484      00
 111:./pdi/source/escrita.c **** 		printf("Erro ao escrever\n");
 485              		.loc 1 111 0
 486 04d0 BF000000 		movl	$.LC2, %edi
 486      00
 487 04d5 E8000000 		call	puts
 487      00
 112:./pdi/source/escrita.c ****         close(jpgfile);
 488              		.loc 1 112 0
 489 04da 8B45FC   		movl	-4(%rbp), %eax
GAS LISTING /tmp/ccVh8ueE.s 			page 13


 490 04dd 89C7     		movl	%eax, %edi
 491 04df E8000000 		call	close
 491      00
 113:./pdi/source/escrita.c **** }
 492              		.loc 1 113 0
 493 04e4 C9       		leave
 494              		.cfi_def_cfa 7, 8
 495 04e5 C3       		ret
 496              		.cfi_endproc
 497              	.LFE6:
 498              		.size	escrita, .-escrita
 499              		.globl	print_ballcoord
 500              		.type	print_ballcoord, @function
 501              	print_ballcoord:
 502              	.LFB7:
 114:./pdi/source/escrita.c **** 
 115:./pdi/source/escrita.c **** struct CD *print_ballcoord(struct pixel **matriz) {
 503              		.loc 1 115 0
 504              		.cfi_startproc
 505 04e6 55       		pushq	%rbp
 506              		.cfi_def_cfa_offset 16
 507              		.cfi_offset 6, -16
 508 04e7 4889E5   		movq	%rsp, %rbp
 509              		.cfi_def_cfa_register 6
 510 04ea 4883EC40 		subq	$64, %rsp
 511 04ee 48897DC8 		movq	%rdi, -56(%rbp)
 116:./pdi/source/escrita.c **** 	
 117:./pdi/source/escrita.c **** 	struct CD *cds = malloc(sizeof(struct CD)*19);
 512              		.loc 1 117 0
 513 04f2 BF980000 		movl	$152, %edi
 513      00
 514 04f7 E8000000 		call	malloc
 514      00
 515 04fc 488945D8 		movq	%rax, -40(%rbp)
 118:./pdi/source/escrita.c **** 	struct coordenadas_size aux = detect_regiao(matriz);
 516              		.loc 1 118 0
 517 0500 488B45C8 		movq	-56(%rbp), %rax
 518 0504 4889C7   		movq	%rax, %rdi
 519 0507 E8000000 		call	detect_regiao
 519      00
 520 050c 488945F0 		movq	%rax, -16(%rbp)
 521 0510 488955F8 		movq	%rdx, -8(%rbp)
 119:./pdi/source/escrita.c ****         struct coordenadas *bolinhas = aux.coord;
 522              		.loc 1 119 0
 523 0514 488B45F0 		movq	-16(%rbp), %rax
 524 0518 488945E0 		movq	%rax, -32(%rbp)
 120:./pdi/source/escrita.c ****         aux.coord = NULL;
 525              		.loc 1 120 0
 526 051c 48C745F0 		movq	$0, -16(%rbp)
 526      00000000 
 121:./pdi/source/escrita.c ****         int nbolinhas = aux.size;
 527              		.loc 1 121 0
 528 0524 8B45F8   		movl	-8(%rbp), %eax
 529 0527 8945D4   		movl	%eax, -44(%rbp)
 122:./pdi/source/escrita.c ****         struct coordenadas *hashtag = generate_hashtag(bolinhas, nbolinhas);
 530              		.loc 1 122 0
 531 052a 8B55D4   		movl	-44(%rbp), %edx
GAS LISTING /tmp/ccVh8ueE.s 			page 14


 532 052d 488B45E0 		movq	-32(%rbp), %rax
 533 0531 89D6     		movl	%edx, %esi
 534 0533 4889C7   		movq	%rax, %rdi
 535 0536 E8000000 		call	generate_hashtag
 535      00
 536 053b 488945E8 		movq	%rax, -24(%rbp)
 123:./pdi/source/escrita.c ****         int i;
 124:./pdi/source/escrita.c **** 
 125:./pdi/source/escrita.c ****         for (i = 0; i < 3; i++) {
 537              		.loc 1 125 0
 538 053f C745D000 		movl	$0, -48(%rbp)
 538      000000
 539 0546 E9DC0100 		jmp	.L21
 539      00
 540              	.L22:
 126:./pdi/source/escrita.c ****                 cds[0 + 3*i].X = hashtag[6 + i].X;
 541              		.loc 1 126 0 discriminator 3
 542 054b 8B45D0   		movl	-48(%rbp), %eax
 543 054e 4863D0   		movslq	%eax, %rdx
 544 0551 4889D0   		movq	%rdx, %rax
 545 0554 4801C0   		addq	%rax, %rax
 546 0557 4801D0   		addq	%rdx, %rax
 547 055a 48C1E003 		salq	$3, %rax
 548 055e 4889C2   		movq	%rax, %rdx
 549 0561 488B45D8 		movq	-40(%rbp), %rax
 550 0565 488D0C02 		leaq	(%rdx,%rax), %rcx
 551 0569 8B45D0   		movl	-48(%rbp), %eax
 552 056c 83C006   		addl	$6, %eax
 553 056f 4863D0   		movslq	%eax, %rdx
 554 0572 4889D0   		movq	%rdx, %rax
 555 0575 4801C0   		addq	%rax, %rax
 556 0578 4801D0   		addq	%rdx, %rax
 557 057b 48C1E002 		salq	$2, %rax
 558 057f 4889C2   		movq	%rax, %rdx
 559 0582 488B45E8 		movq	-24(%rbp), %rax
 560 0586 4801D0   		addq	%rdx, %rax
 561 0589 8B00     		movl	(%rax), %eax
 562 058b 660FEFC0 		pxor	%xmm0, %xmm0
 563 058f F30F2AC0 		cvtsi2ss	%eax, %xmm0
 564 0593 660F7EC0 		movd	%xmm0, %eax
 565 0597 8901     		movl	%eax, (%rcx)
 127:./pdi/source/escrita.c ****                 cds[0 + 3*i].Y = hashtag[6 + i].Y;
 566              		.loc 1 127 0 discriminator 3
 567 0599 8B45D0   		movl	-48(%rbp), %eax
 568 059c 4863D0   		movslq	%eax, %rdx
 569 059f 4889D0   		movq	%rdx, %rax
 570 05a2 4801C0   		addq	%rax, %rax
 571 05a5 4801D0   		addq	%rdx, %rax
 572 05a8 48C1E003 		salq	$3, %rax
 573 05ac 4889C2   		movq	%rax, %rdx
 574 05af 488B45D8 		movq	-40(%rbp), %rax
 575 05b3 488D0C02 		leaq	(%rdx,%rax), %rcx
 576 05b7 8B45D0   		movl	-48(%rbp), %eax
 577 05ba 83C006   		addl	$6, %eax
 578 05bd 4863D0   		movslq	%eax, %rdx
 579 05c0 4889D0   		movq	%rdx, %rax
 580 05c3 4801C0   		addq	%rax, %rax
GAS LISTING /tmp/ccVh8ueE.s 			page 15


 581 05c6 4801D0   		addq	%rdx, %rax
 582 05c9 48C1E002 		salq	$2, %rax
 583 05cd 4889C2   		movq	%rax, %rdx
 584 05d0 488B45E8 		movq	-24(%rbp), %rax
 585 05d4 4801D0   		addq	%rdx, %rax
 586 05d7 8B4004   		movl	4(%rax), %eax
 587 05da 660FEFC9 		pxor	%xmm1, %xmm1
 588 05de F30F2AC8 		cvtsi2ss	%eax, %xmm1
 589 05e2 660F7EC8 		movd	%xmm1, %eax
 590 05e6 894104   		movl	%eax, 4(%rcx)
 128:./pdi/source/escrita.c **** 
 129:./pdi/source/escrita.c ****                 cds[1 + 3*i].X = hashtag[3 + i].X;
 591              		.loc 1 129 0 discriminator 3
 592 05e9 8B45D0   		movl	-48(%rbp), %eax
 593 05ec 4863D0   		movslq	%eax, %rdx
 594 05ef 4889D0   		movq	%rdx, %rax
 595 05f2 4801C0   		addq	%rax, %rax
 596 05f5 4801D0   		addq	%rdx, %rax
 597 05f8 48C1E003 		salq	$3, %rax
 598 05fc 488D5008 		leaq	8(%rax), %rdx
 599 0600 488B45D8 		movq	-40(%rbp), %rax
 600 0604 488D0C02 		leaq	(%rdx,%rax), %rcx
 601 0608 8B45D0   		movl	-48(%rbp), %eax
 602 060b 83C003   		addl	$3, %eax
 603 060e 4863D0   		movslq	%eax, %rdx
 604 0611 4889D0   		movq	%rdx, %rax
 605 0614 4801C0   		addq	%rax, %rax
 606 0617 4801D0   		addq	%rdx, %rax
 607 061a 48C1E002 		salq	$2, %rax
 608 061e 4889C2   		movq	%rax, %rdx
 609 0621 488B45E8 		movq	-24(%rbp), %rax
 610 0625 4801D0   		addq	%rdx, %rax
 611 0628 8B00     		movl	(%rax), %eax
 612 062a 660FEFD2 		pxor	%xmm2, %xmm2
 613 062e F30F2AD0 		cvtsi2ss	%eax, %xmm2
 614 0632 660F7ED0 		movd	%xmm2, %eax
 615 0636 8901     		movl	%eax, (%rcx)
 130:./pdi/source/escrita.c ****                 cds[1 + 3*i].Y = hashtag[3 + i].Y;
 616              		.loc 1 130 0 discriminator 3
 617 0638 8B45D0   		movl	-48(%rbp), %eax
 618 063b 4863D0   		movslq	%eax, %rdx
 619 063e 4889D0   		movq	%rdx, %rax
 620 0641 4801C0   		addq	%rax, %rax
 621 0644 4801D0   		addq	%rdx, %rax
 622 0647 48C1E003 		salq	$3, %rax
 623 064b 488D5008 		leaq	8(%rax), %rdx
 624 064f 488B45D8 		movq	-40(%rbp), %rax
 625 0653 488D0C02 		leaq	(%rdx,%rax), %rcx
 626 0657 8B45D0   		movl	-48(%rbp), %eax
 627 065a 83C003   		addl	$3, %eax
 628 065d 4863D0   		movslq	%eax, %rdx
 629 0660 4889D0   		movq	%rdx, %rax
 630 0663 4801C0   		addq	%rax, %rax
 631 0666 4801D0   		addq	%rdx, %rax
 632 0669 48C1E002 		salq	$2, %rax
 633 066d 4889C2   		movq	%rax, %rdx
 634 0670 488B45E8 		movq	-24(%rbp), %rax
GAS LISTING /tmp/ccVh8ueE.s 			page 16


 635 0674 4801D0   		addq	%rdx, %rax
 636 0677 8B4004   		movl	4(%rax), %eax
 637 067a 660FEFDB 		pxor	%xmm3, %xmm3
 638 067e F30F2AD8 		cvtsi2ss	%eax, %xmm3
 639 0682 660F7ED8 		movd	%xmm3, %eax
 640 0686 894104   		movl	%eax, 4(%rcx)
 131:./pdi/source/escrita.c **** 
 132:./pdi/source/escrita.c ****                 cds[2 + 3*i].X = hashtag[0 + i].X;
 641              		.loc 1 132 0 discriminator 3
 642 0689 8B45D0   		movl	-48(%rbp), %eax
 643 068c 4863D0   		movslq	%eax, %rdx
 644 068f 4889D0   		movq	%rdx, %rax
 645 0692 4801C0   		addq	%rax, %rax
 646 0695 4801D0   		addq	%rdx, %rax
 647 0698 48C1E003 		salq	$3, %rax
 648 069c 488D5010 		leaq	16(%rax), %rdx
 649 06a0 488B45D8 		movq	-40(%rbp), %rax
 650 06a4 488D0C02 		leaq	(%rdx,%rax), %rcx
 651 06a8 8B45D0   		movl	-48(%rbp), %eax
 652 06ab 4863D0   		movslq	%eax, %rdx
 653 06ae 4889D0   		movq	%rdx, %rax
 654 06b1 4801C0   		addq	%rax, %rax
 655 06b4 4801D0   		addq	%rdx, %rax
 656 06b7 48C1E002 		salq	$2, %rax
 657 06bb 4889C2   		movq	%rax, %rdx
 658 06be 488B45E8 		movq	-24(%rbp), %rax
 659 06c2 4801D0   		addq	%rdx, %rax
 660 06c5 8B00     		movl	(%rax), %eax
 661 06c7 660FEFE4 		pxor	%xmm4, %xmm4
 662 06cb F30F2AE0 		cvtsi2ss	%eax, %xmm4
 663 06cf 660F7EE0 		movd	%xmm4, %eax
 664 06d3 8901     		movl	%eax, (%rcx)
 133:./pdi/source/escrita.c ****                 cds[2 + 3*i].Y = hashtag[0 + i].Y;
 665              		.loc 1 133 0 discriminator 3
 666 06d5 8B45D0   		movl	-48(%rbp), %eax
 667 06d8 4863D0   		movslq	%eax, %rdx
 668 06db 4889D0   		movq	%rdx, %rax
 669 06de 4801C0   		addq	%rax, %rax
 670 06e1 4801D0   		addq	%rdx, %rax
 671 06e4 48C1E003 		salq	$3, %rax
 672 06e8 488D5010 		leaq	16(%rax), %rdx
 673 06ec 488B45D8 		movq	-40(%rbp), %rax
 674 06f0 488D0C02 		leaq	(%rdx,%rax), %rcx
 675 06f4 8B45D0   		movl	-48(%rbp), %eax
 676 06f7 4863D0   		movslq	%eax, %rdx
 677 06fa 4889D0   		movq	%rdx, %rax
 678 06fd 4801C0   		addq	%rax, %rax
 679 0700 4801D0   		addq	%rdx, %rax
 680 0703 48C1E002 		salq	$2, %rax
 681 0707 4889C2   		movq	%rax, %rdx
 682 070a 488B45E8 		movq	-24(%rbp), %rax
 683 070e 4801D0   		addq	%rdx, %rax
 684 0711 8B4004   		movl	4(%rax), %eax
 685 0714 660FEFED 		pxor	%xmm5, %xmm5
 686 0718 F30F2AE8 		cvtsi2ss	%eax, %xmm5
 687 071c 660F7EE8 		movd	%xmm5, %eax
 688 0720 894104   		movl	%eax, 4(%rcx)
GAS LISTING /tmp/ccVh8ueE.s 			page 17


 125:./pdi/source/escrita.c ****                 cds[0 + 3*i].X = hashtag[6 + i].X;
 689              		.loc 1 125 0 discriminator 3
 690 0723 8345D001 		addl	$1, -48(%rbp)
 691              	.L21:
 125:./pdi/source/escrita.c ****                 cds[0 + 3*i].X = hashtag[6 + i].X;
 692              		.loc 1 125 0 is_stmt 0 discriminator 1
 693 0727 837DD002 		cmpl	$2, -48(%rbp)
 694 072b 0F8E1AFE 		jle	.L22
 694      FFFF
 134:./pdi/source/escrita.c ****         }
 135:./pdi/source/escrita.c **** 
 136:./pdi/source/escrita.c ****         for (i = 0; i < 10; i++) {
 695              		.loc 1 136 0 is_stmt 1
 696 0731 C745D000 		movl	$0, -48(%rbp)
 696      000000
 697 0738 E9900000 		jmp	.L23
 697      00
 698              	.L24:
 137:./pdi/source/escrita.c ****                 cds[9 + i].X = bolinhas[i].X;
 699              		.loc 1 137 0 discriminator 3
 700 073d 8B45D0   		movl	-48(%rbp), %eax
 701 0740 83C009   		addl	$9, %eax
 702 0743 4898     		cltq
 703 0745 488D14C5 		leaq	0(,%rax,8), %rdx
 703      00000000 
 704 074d 488B45D8 		movq	-40(%rbp), %rax
 705 0751 488D0C02 		leaq	(%rdx,%rax), %rcx
 706 0755 8B45D0   		movl	-48(%rbp), %eax
 707 0758 4863D0   		movslq	%eax, %rdx
 708 075b 4889D0   		movq	%rdx, %rax
 709 075e 4801C0   		addq	%rax, %rax
 710 0761 4801D0   		addq	%rdx, %rax
 711 0764 48C1E002 		salq	$2, %rax
 712 0768 4889C2   		movq	%rax, %rdx
 713 076b 488B45E0 		movq	-32(%rbp), %rax
 714 076f 4801D0   		addq	%rdx, %rax
 715 0772 8B00     		movl	(%rax), %eax
 716 0774 660FEFF6 		pxor	%xmm6, %xmm6
 717 0778 F30F2AF0 		cvtsi2ss	%eax, %xmm6
 718 077c 660F7EF0 		movd	%xmm6, %eax
 719 0780 8901     		movl	%eax, (%rcx)
 138:./pdi/source/escrita.c ****                 cds[9 + i].Y = bolinhas[i].Y;
 720              		.loc 1 138 0 discriminator 3
 721 0782 8B45D0   		movl	-48(%rbp), %eax
 722 0785 83C009   		addl	$9, %eax
 723 0788 4898     		cltq
 724 078a 488D14C5 		leaq	0(,%rax,8), %rdx
 724      00000000 
 725 0792 488B45D8 		movq	-40(%rbp), %rax
 726 0796 488D0C02 		leaq	(%rdx,%rax), %rcx
 727 079a 8B45D0   		movl	-48(%rbp), %eax
 728 079d 4863D0   		movslq	%eax, %rdx
 729 07a0 4889D0   		movq	%rdx, %rax
 730 07a3 4801C0   		addq	%rax, %rax
 731 07a6 4801D0   		addq	%rdx, %rax
 732 07a9 48C1E002 		salq	$2, %rax
 733 07ad 4889C2   		movq	%rax, %rdx
GAS LISTING /tmp/ccVh8ueE.s 			page 18


 734 07b0 488B45E0 		movq	-32(%rbp), %rax
 735 07b4 4801D0   		addq	%rdx, %rax
 736 07b7 8B4004   		movl	4(%rax), %eax
 737 07ba 660FEFFF 		pxor	%xmm7, %xmm7
 738 07be F30F2AF8 		cvtsi2ss	%eax, %xmm7
 739 07c2 660F7EF8 		movd	%xmm7, %eax
 740 07c6 894104   		movl	%eax, 4(%rcx)
 136:./pdi/source/escrita.c ****                 cds[9 + i].X = bolinhas[i].X;
 741              		.loc 1 136 0 discriminator 3
 742 07c9 8345D001 		addl	$1, -48(%rbp)
 743              	.L23:
 136:./pdi/source/escrita.c ****                 cds[9 + i].X = bolinhas[i].X;
 744              		.loc 1 136 0 is_stmt 0 discriminator 1
 745 07cd 837DD009 		cmpl	$9, -48(%rbp)
 746 07d1 0F8E66FF 		jle	.L24
 746      FFFF
 139:./pdi/source/escrita.c ****         }
 140:./pdi/source/escrita.c **** /*
 141:./pdi/source/escrita.c ****         printf("Camera\n");
 142:./pdi/source/escrita.c ****         for (i = 0; i < 19; i++) {
 143:./pdi/source/escrita.c ****                 printf("%d %f %f\n", i, cds[i].X, cds[i].Y);
 144:./pdi/source/escrita.c ****         }
 145:./pdi/source/escrita.c **** */
 146:./pdi/source/escrita.c ****         free(bolinhas);
 747              		.loc 1 146 0 is_stmt 1
 748 07d7 488B45E0 		movq	-32(%rbp), %rax
 749 07db 4889C7   		movq	%rax, %rdi
 750 07de E8000000 		call	free
 750      00
 147:./pdi/source/escrita.c ****         free(hashtag);
 751              		.loc 1 147 0
 752 07e3 488B45E8 		movq	-24(%rbp), %rax
 753 07e7 4889C7   		movq	%rax, %rdi
 754 07ea E8000000 		call	free
 754      00
 148:./pdi/source/escrita.c **** 	return cds;
 755              		.loc 1 148 0
 756 07ef 488B45D8 		movq	-40(%rbp), %rax
 149:./pdi/source/escrita.c **** 
 150:./pdi/source/escrita.c **** }
 757              		.loc 1 150 0
 758 07f3 C9       		leave
 759              		.cfi_def_cfa 7, 8
 760 07f4 C3       		ret
 761              		.cfi_endproc
 762              	.LFE7:
 763              		.size	print_ballcoord, .-print_ballcoord
 764              	.Letext0:
 765              		.file 2 "./pdi/source/../headers/pixel.h"
 766              		.file 3 "./pdi/source/../headers/regiao.h"
 767              		.file 4 "./pdi/source/../headers/cabecalho.h"
 1763              		.section	.note.GNU-stack,"",@progbits
GAS LISTING /tmp/ccVh8ueE.s 			page 39

