GAS LISTING /tmp/ccmGtSBt.s 			page 1


   1              		.file	"escrita.c"
   2              		.text
   3              	.Ltext0:
   4              		.section	.rodata
   5              	.LC0:
   6 0000 56616C6F 		.string	"Valor do limiar: %d\n"
   6      7220646F 
   6      206C696D 
   6      6961723A 
   6      2025640A 
   7              		.text
   8              		.globl	threshold
   9              		.type	threshold, @function
  10              	threshold:
  11              	.LFB2:
  12              		.file 1 "./pdi/source/escrita.c"
   1:./pdi/source/escrita.c **** #include "../headers/cabecalho.h"
   2:./pdi/source/escrita.c **** 
   3:./pdi/source/escrita.c **** void threshold (struct pixel **matriz, unsigned char *mapa, struct bloco *block, char *arquivo) {
  13              		.loc 1 3 0
  14              		.cfi_startproc
  15 0000 55       		pushq	%rbp
  16              		.cfi_def_cfa_offset 16
  17              		.cfi_offset 6, -16
  18 0001 4889E5   		movq	%rsp, %rbp
  19              		.cfi_def_cfa_register 6
  20 0004 4883EC30 		subq	$48, %rsp
  21 0008 48897DE8 		movq	%rdi, -24(%rbp)
  22 000c 488975E0 		movq	%rsi, -32(%rbp)
  23 0010 488955D8 		movq	%rdx, -40(%rbp)
  24 0014 48894DD0 		movq	%rcx, -48(%rbp)
   4:./pdi/source/escrita.c **** 	limiar=10;
  25              		.loc 1 4 0
  26 0018 C7050000 		movl	$10, limiar(%rip)
  26      00000A00 
  26      0000
   5:./pdi/source/escrita.c **** 	unsigned char *prototipo;
   6:./pdi/source/escrita.c ****         prototipo = malloc(altura*largura*2);
  27              		.loc 1 6 0
  28 0022 BF006009 		movl	$614400, %edi
  28      00
  29 0027 E8000000 		call	malloc
  29      00
  30 002c 488945F8 		movq	%rax, -8(%rbp)
   7:./pdi/source/escrita.c **** 	alocate(matriz,mapa);
  31              		.loc 1 7 0
  32 0030 488B55E0 		movq	-32(%rbp), %rdx
  33 0034 488B45E8 		movq	-24(%rbp), %rax
  34 0038 4889D6   		movq	%rdx, %rsi
  35 003b 4889C7   		movq	%rax, %rdi
  36 003e E8000000 		call	alocate
  36      00
   8:./pdi/source/escrita.c **** 	
   9:./pdi/source/escrita.c **** 	/*
  10:./pdi/source/escrita.c **** 	array_bloco(block, matriz);
  11:./pdi/source/escrita.c **** 	generate_grad(matriz, block);	
  12:./pdi/source/escrita.c **** 	generate_prox(matriz);
GAS LISTING /tmp/ccmGtSBt.s 			page 2


  13:./pdi/source/escrita.c **** 	shrink(matriz, 4);
  14:./pdi/source/escrita.c **** 	generate_prox(matriz);
  15:./pdi/source/escrita.c **** 	swell(matriz, 6);
  16:./pdi/source/escrita.c **** 	
  17:./pdi/source/escrita.c **** 	detect_circle(matriz);
  18:./pdi/source/escrita.c **** 	generate_proxcircle(matriz);
  19:./pdi/source/escrita.c **** 	shrink_circle(matriz, 5);
  20:./pdi/source/escrita.c **** 	generate_proxcircle(matriz);
  21:./pdi/source/escrita.c **** 	        
  22:./pdi/source/escrita.c **** 	struct coordenadas_size aux = detect_regiao(matriz);
  23:./pdi/source/escrita.c **** 	struct coordenadas *bolinhas = aux.coord;
  24:./pdi/source/escrita.c **** 	aux.coord = NULL;
  25:./pdi/source/escrita.c **** 	int nbolinhas = aux.size;
  26:./pdi/source/escrita.c **** 	struct coordenadas *hashtag = generate_hashtag(bolinhas, nbolinhas);
  27:./pdi/source/escrita.c **** 
  28:./pdi/source/escrita.c **** 	for (int j = 0; j < nbolinhas; j++){
  29:./pdi/source/escrita.c **** 		printf("Bolinha: %d Centro X : %d Centro Y: %d\n", j+1, bolinhas[j].X, bolinhas[j].Y);
  30:./pdi/source/escrita.c **** 	}
  31:./pdi/source/escrita.c **** 	for (int i = 0; i < 9; i++) printf("%d) X: %d Y: %d\n", i, hashtag[i].X, hashtag[i].Y);
  32:./pdi/source/escrita.c **** 	*/
  33:./pdi/source/escrita.c **** 
  34:./pdi/source/escrita.c **** 	AI(matriz);
  37              		.loc 1 34 0
  38 0043 488B45E8 		movq	-24(%rbp), %rax
  39 0047 4889C7   		movq	%rax, %rdi
  40 004a E8000000 		call	AI
  40      00
  35:./pdi/source/escrita.c **** 	
  36:./pdi/source/escrita.c **** 	//free(bolinhas);
  37:./pdi/source/escrita.c **** 	//free(hashtag);
  38:./pdi/source/escrita.c **** 	dealocate(matriz, prototipo);
  41              		.loc 1 38 0
  42 004f 488B55F8 		movq	-8(%rbp), %rdx
  43 0053 488B45E8 		movq	-24(%rbp), %rax
  44 0057 4889D6   		movq	%rdx, %rsi
  45 005a 4889C7   		movq	%rax, %rdi
  46 005d E8000000 		call	dealocate
  46      00
  39:./pdi/source/escrita.c **** 	arquivo[0]='0' + 0; //Cheat de converter o inteiro para char
  47              		.loc 1 39 0
  48 0062 488B45D0 		movq	-48(%rbp), %rax
  49 0066 C60030   		movb	$48, (%rax)
  40:./pdi/source/escrita.c **** 	escrita(arquivo, prototipo);
  50              		.loc 1 40 0
  51 0069 488B55F8 		movq	-8(%rbp), %rdx
  52 006d 488B45D0 		movq	-48(%rbp), %rax
  53 0071 4889D6   		movq	%rdx, %rsi
  54 0074 4889C7   		movq	%rax, %rdi
  55 0077 E8000000 		call	escrita
  55      00
  41:./pdi/source/escrita.c **** 	printf("Valor do limiar: %d\n", limiar);
  56              		.loc 1 41 0
  57 007c 8B050000 		movl	limiar(%rip), %eax
  57      0000
  58 0082 89C6     		movl	%eax, %esi
  59 0084 BF000000 		movl	$.LC0, %edi
  59      00
GAS LISTING /tmp/ccmGtSBt.s 			page 3


  60 0089 B8000000 		movl	$0, %eax
  60      00
  61 008e E8000000 		call	printf
  61      00
  42:./pdi/source/escrita.c **** }
  62              		.loc 1 42 0
  63 0093 C9       		leave
  64              		.cfi_def_cfa 7, 8
  65 0094 C3       		ret
  66              		.cfi_endproc
  67              	.LFE2:
  68              		.size	threshold, .-threshold
  69              		.globl	AI
  70              		.type	AI, @function
  71              	AI:
  72              	.LFB3:
  43:./pdi/source/escrita.c **** 
  44:./pdi/source/escrita.c **** 
  45:./pdi/source/escrita.c **** void AI(struct pixel **matriz)
  46:./pdi/source/escrita.c **** {
  73              		.loc 1 46 0
  74              		.cfi_startproc
  75 0095 55       		pushq	%rbp
  76              		.cfi_def_cfa_offset 16
  77              		.cfi_offset 6, -16
  78 0096 4889E5   		movq	%rsp, %rbp
  79              		.cfi_def_cfa_register 6
  80 0099 4883EC30 		subq	$48, %rsp
  81 009d 48897DD8 		movq	%rdi, -40(%rbp)
  47:./pdi/source/escrita.c **** 	    
  48:./pdi/source/escrita.c **** 	struct pixel pixteam1; //verde
  49:./pdi/source/escrita.c **** 	pixteam1.luma = 182;
  82              		.loc 1 49 0
  83 00a1 C645E0B6 		movb	$-74, -32(%rbp)
  50:./pdi/source/escrita.c **** 	pixteam1.cb = 104;
  84              		.loc 1 50 0
  85 00a5 C645E168 		movb	$104, -31(%rbp)
  51:./pdi/source/escrita.c **** 	pixteam1.cr = 115;
  86              		.loc 1 51 0
  87 00a9 C645E273 		movb	$115, -30(%rbp)
  52:./pdi/source/escrita.c **** 	struct pixel pixteam2; //vermelho
  53:./pdi/source/escrita.c **** 	pixteam2.luma = 144;
  88              		.loc 1 53 0
  89 00ad C645F090 		movb	$-112, -16(%rbp)
  54:./pdi/source/escrita.c **** 	pixteam2.cb = 122;
  90              		.loc 1 54 0
  91 00b1 C645F17A 		movb	$122, -15(%rbp)
  55:./pdi/source/escrita.c **** 	pixteam2.cr = 159;
  92              		.loc 1 55 0
  93 00b5 C645F29F 		movb	$-97, -14(%rbp)
  56:./pdi/source/escrita.c **** 
  57:./pdi/source/escrita.c **** 	generate_teams(matriz, pixteam1, pixteam2);
  94              		.loc 1 57 0
  95 00b9 488B4DF0 		movq	-16(%rbp), %rcx
  96 00bd 0FB67DF8 		movzbl	-8(%rbp), %edi
  97 00c1 488B75E0 		movq	-32(%rbp), %rsi
  98 00c5 0FB655E8 		movzbl	-24(%rbp), %edx
GAS LISTING /tmp/ccmGtSBt.s 			page 4


  99 00c9 488B45D8 		movq	-40(%rbp), %rax
 100 00cd 4189F8   		movl	%edi, %r8d
 101 00d0 4889C7   		movq	%rax, %rdi
 102 00d3 E8000000 		call	generate_teams
 102      00
  58:./pdi/source/escrita.c **** 	detect_regiaoteam(matriz);
 103              		.loc 1 58 0
 104 00d8 488B45D8 		movq	-40(%rbp), %rax
 105 00dc 4889C7   		movq	%rax, %rdi
 106 00df E8000000 		call	detect_regiaoteam
 106      00
  59:./pdi/source/escrita.c **** }
 107              		.loc 1 59 0
 108 00e4 C9       		leave
 109              		.cfi_def_cfa 7, 8
 110 00e5 C3       		ret
 111              		.cfi_endproc
 112              	.LFE3:
 113              		.size	AI, .-AI
 114              		.globl	generate_teams
 115              		.type	generate_teams, @function
 116              	generate_teams:
 117              	.LFB4:
  60:./pdi/source/escrita.c **** 
  61:./pdi/source/escrita.c **** void generate_teams(struct pixel **matriz, struct pixel team1, struct pixel team2)
  62:./pdi/source/escrita.c **** {
 118              		.loc 1 62 0
 119              		.cfi_startproc
 120 00e6 55       		pushq	%rbp
 121              		.cfi_def_cfa_offset 16
 122              		.cfi_offset 6, -16
 123 00e7 4889E5   		movq	%rsp, %rbp
 124              		.cfi_def_cfa_register 6
 125 00ea 4883EC50 		subq	$80, %rsp
 126 00ee 48897DD8 		movq	%rdi, -40(%rbp)
 127 00f2 4889C8   		movq	%rcx, %rax
 128 00f5 4489C1   		movl	%r8d, %ecx
 129 00f8 488975C8 		movq	%rsi, -56(%rbp)
 130 00fc 8855D0   		movb	%dl, -48(%rbp)
 131 00ff 488945B8 		movq	%rax, -72(%rbp)
 132 0103 884DC0   		movb	%cl, -64(%rbp)
  63:./pdi/source/escrita.c **** 	struct pixel tmp;
  64:./pdi/source/escrita.c **** 	int i,j;
  65:./pdi/source/escrita.c **** 	for (i = altmin; i < altmax; i++) {
 133              		.loc 1 65 0
 134 0106 C745E86E 		movl	$110, -24(%rbp)
 134      000000
 135 010d E90C0100 		jmp	.L4
 135      00
 136              	.L9:
  66:./pdi/source/escrita.c **** 		for (j = largmin; j < largmax; j++) {
 137              		.loc 1 66 0
 138 0112 C745EC54 		movl	$340, -20(%rbp)
 138      010000
 139 0119 E9EF0000 		jmp	.L5
 139      00
 140              	.L8:
GAS LISTING /tmp/ccmGtSBt.s 			page 5


  67:./pdi/source/escrita.c **** 			tmp = lumcbcr_medium(matriz, i, j, 8);
 141              		.loc 1 67 0
 142 011e 8B55EC   		movl	-20(%rbp), %edx
 143 0121 8B75E8   		movl	-24(%rbp), %esi
 144 0124 488B45D8 		movq	-40(%rbp), %rax
 145 0128 B9080000 		movl	$8, %ecx
 145      00
 146 012d 4889C7   		movq	%rax, %rdi
 147 0130 E8000000 		call	lumcbcr_medium
 147      00
 148 0135 4889C1   		movq	%rax, %rcx
 149 0138 89D0     		movl	%edx, %eax
 150 013a 48894DF0 		movq	%rcx, -16(%rbp)
 151 013e 8845F8   		movb	%al, -8(%rbp)
  68:./pdi/source/escrita.c **** 			matriz[i][j].team = 0;
 152              		.loc 1 68 0
 153 0141 8B45E8   		movl	-24(%rbp), %eax
 154 0144 4898     		cltq
 155 0146 488D14C5 		leaq	0(,%rax,8), %rdx
 155      00000000 
 156 014e 488B45D8 		movq	-40(%rbp), %rax
 157 0152 4801D0   		addq	%rdx, %rax
 158 0155 488B08   		movq	(%rax), %rcx
 159 0158 8B45EC   		movl	-20(%rbp), %eax
 160 015b 4863D0   		movslq	%eax, %rdx
 161 015e 4889D0   		movq	%rdx, %rax
 162 0161 48C1E003 		salq	$3, %rax
 163 0165 4801D0   		addq	%rdx, %rax
 164 0168 4801C8   		addq	%rcx, %rax
 165 016b C6400700 		movb	$0, 7(%rax)
  69:./pdi/source/escrita.c **** 			if (pix_erro(tmp, team1) < 30) matriz[i][j].team = 1;
 166              		.loc 1 69 0
 167 016f 488B55C8 		movq	-56(%rbp), %rdx
 168 0173 0FB64DD0 		movzbl	-48(%rbp), %ecx
 169 0177 488B75F0 		movq	-16(%rbp), %rsi
 170 017b 0FB645F8 		movzbl	-8(%rbp), %eax
 171 017f 4889F7   		movq	%rsi, %rdi
 172 0182 89C6     		movl	%eax, %esi
 173 0184 E8000000 		call	pix_erro
 173      00
 174 0189 83F81D   		cmpl	$29, %eax
 175 018c 7F2E     		jg	.L6
 176              		.loc 1 69 0 is_stmt 0 discriminator 1
 177 018e 8B45E8   		movl	-24(%rbp), %eax
 178 0191 4898     		cltq
 179 0193 488D14C5 		leaq	0(,%rax,8), %rdx
 179      00000000 
 180 019b 488B45D8 		movq	-40(%rbp), %rax
 181 019f 4801D0   		addq	%rdx, %rax
 182 01a2 488B08   		movq	(%rax), %rcx
 183 01a5 8B45EC   		movl	-20(%rbp), %eax
 184 01a8 4863D0   		movslq	%eax, %rdx
 185 01ab 4889D0   		movq	%rdx, %rax
 186 01ae 48C1E003 		salq	$3, %rax
 187 01b2 4801D0   		addq	%rdx, %rax
 188 01b5 4801C8   		addq	%rcx, %rax
 189 01b8 C6400701 		movb	$1, 7(%rax)
GAS LISTING /tmp/ccmGtSBt.s 			page 6


 190              	.L6:
  70:./pdi/source/escrita.c **** 			if (pix_erro(tmp, team2) < 30) matriz[i][j].team = 2;
 191              		.loc 1 70 0 is_stmt 1
 192 01bc 488B55B8 		movq	-72(%rbp), %rdx
 193 01c0 0FB64DC0 		movzbl	-64(%rbp), %ecx
 194 01c4 488B75F0 		movq	-16(%rbp), %rsi
 195 01c8 0FB645F8 		movzbl	-8(%rbp), %eax
 196 01cc 4889F7   		movq	%rsi, %rdi
 197 01cf 89C6     		movl	%eax, %esi
 198 01d1 E8000000 		call	pix_erro
 198      00
 199 01d6 83F81D   		cmpl	$29, %eax
 200 01d9 7F2E     		jg	.L7
 201              		.loc 1 70 0 is_stmt 0 discriminator 1
 202 01db 8B45E8   		movl	-24(%rbp), %eax
 203 01de 4898     		cltq
 204 01e0 488D14C5 		leaq	0(,%rax,8), %rdx
 204      00000000 
 205 01e8 488B45D8 		movq	-40(%rbp), %rax
 206 01ec 4801D0   		addq	%rdx, %rax
 207 01ef 488B08   		movq	(%rax), %rcx
 208 01f2 8B45EC   		movl	-20(%rbp), %eax
 209 01f5 4863D0   		movslq	%eax, %rdx
 210 01f8 4889D0   		movq	%rdx, %rax
 211 01fb 48C1E003 		salq	$3, %rax
 212 01ff 4801D0   		addq	%rdx, %rax
 213 0202 4801C8   		addq	%rcx, %rax
 214 0205 C6400702 		movb	$2, 7(%rax)
 215              	.L7:
  66:./pdi/source/escrita.c **** 			tmp = lumcbcr_medium(matriz, i, j, 8);
 216              		.loc 1 66 0 is_stmt 1 discriminator 2
 217 0209 8345EC01 		addl	$1, -20(%rbp)
 218              	.L5:
  66:./pdi/source/escrita.c **** 			tmp = lumcbcr_medium(matriz, i, j, 8);
 219              		.loc 1 66 0 is_stmt 0 discriminator 1
 220 020d 817DEC20 		cmpl	$544, -20(%rbp)
 220      020000
 221 0214 0F8E04FF 		jle	.L8
 221      FFFF
  65:./pdi/source/escrita.c **** 		for (j = largmin; j < largmax; j++) {
 222              		.loc 1 65 0 is_stmt 1 discriminator 2
 223 021a 8345E801 		addl	$1, -24(%rbp)
 224              	.L4:
  65:./pdi/source/escrita.c **** 		for (j = largmin; j < largmax; j++) {
 225              		.loc 1 65 0 is_stmt 0 discriminator 1
 226 021e 817DE86B 		cmpl	$363, -24(%rbp)
 226      010000
 227 0225 0F8EE7FE 		jle	.L9
 227      FFFF
  71:./pdi/source/escrita.c **** 		}
  72:./pdi/source/escrita.c **** 	}
  73:./pdi/source/escrita.c **** 
  74:./pdi/source/escrita.c **** 	for (i = altmin; i < altmax; i++) {
 228              		.loc 1 74 0 is_stmt 1
 229 022b C745E86E 		movl	$110, -24(%rbp)
 229      000000
 230 0232 E9450200 		jmp	.L10
GAS LISTING /tmp/ccmGtSBt.s 			page 7


 230      00
 231              	.L15:
  75:./pdi/source/escrita.c **** 		for (j = largmin; j < largmax; j++) {
 232              		.loc 1 75 0
 233 0237 C745EC54 		movl	$340, -20(%rbp)
 233      010000
 234 023e E9280200 		jmp	.L11
 234      00
 235              	.L14:
  76:./pdi/source/escrita.c **** 			matriz[i][j].luma = 0;
 236              		.loc 1 76 0
 237 0243 8B45E8   		movl	-24(%rbp), %eax
 238 0246 4898     		cltq
 239 0248 488D14C5 		leaq	0(,%rax,8), %rdx
 239      00000000 
 240 0250 488B45D8 		movq	-40(%rbp), %rax
 241 0254 4801D0   		addq	%rdx, %rax
 242 0257 488B08   		movq	(%rax), %rcx
 243 025a 8B45EC   		movl	-20(%rbp), %eax
 244 025d 4863D0   		movslq	%eax, %rdx
 245 0260 4889D0   		movq	%rdx, %rax
 246 0263 48C1E003 		salq	$3, %rax
 247 0267 4801D0   		addq	%rdx, %rax
 248 026a 4801C8   		addq	%rcx, %rax
 249 026d C60000   		movb	$0, (%rax)
  77:./pdi/source/escrita.c **** 			matriz[i][j].cb = 128;
 250              		.loc 1 77 0
 251 0270 8B45E8   		movl	-24(%rbp), %eax
 252 0273 4898     		cltq
 253 0275 488D14C5 		leaq	0(,%rax,8), %rdx
 253      00000000 
 254 027d 488B45D8 		movq	-40(%rbp), %rax
 255 0281 4801D0   		addq	%rdx, %rax
 256 0284 488B08   		movq	(%rax), %rcx
 257 0287 8B45EC   		movl	-20(%rbp), %eax
 258 028a 4863D0   		movslq	%eax, %rdx
 259 028d 4889D0   		movq	%rdx, %rax
 260 0290 48C1E003 		salq	$3, %rax
 261 0294 4801D0   		addq	%rdx, %rax
 262 0297 4801C8   		addq	%rcx, %rax
 263 029a C6400180 		movb	$-128, 1(%rax)
  78:./pdi/source/escrita.c **** 			matriz[i][j].cr = 128;
 264              		.loc 1 78 0
 265 029e 8B45E8   		movl	-24(%rbp), %eax
 266 02a1 4898     		cltq
 267 02a3 488D14C5 		leaq	0(,%rax,8), %rdx
 267      00000000 
 268 02ab 488B45D8 		movq	-40(%rbp), %rax
 269 02af 4801D0   		addq	%rdx, %rax
 270 02b2 488B08   		movq	(%rax), %rcx
 271 02b5 8B45EC   		movl	-20(%rbp), %eax
 272 02b8 4863D0   		movslq	%eax, %rdx
 273 02bb 4889D0   		movq	%rdx, %rax
 274 02be 48C1E003 		salq	$3, %rax
 275 02c2 4801D0   		addq	%rdx, %rax
 276 02c5 4801C8   		addq	%rcx, %rax
 277 02c8 C6400280 		movb	$-128, 2(%rax)
GAS LISTING /tmp/ccmGtSBt.s 			page 8


  79:./pdi/source/escrita.c **** 			if (matriz[i][j].team == 1) {
 278              		.loc 1 79 0
 279 02cc 8B45E8   		movl	-24(%rbp), %eax
 280 02cf 4898     		cltq
 281 02d1 488D14C5 		leaq	0(,%rax,8), %rdx
 281      00000000 
 282 02d9 488B45D8 		movq	-40(%rbp), %rax
 283 02dd 4801D0   		addq	%rdx, %rax
 284 02e0 488B08   		movq	(%rax), %rcx
 285 02e3 8B45EC   		movl	-20(%rbp), %eax
 286 02e6 4863D0   		movslq	%eax, %rdx
 287 02e9 4889D0   		movq	%rdx, %rax
 288 02ec 48C1E003 		salq	$3, %rax
 289 02f0 4801D0   		addq	%rdx, %rax
 290 02f3 4801C8   		addq	%rcx, %rax
 291 02f6 0FB64007 		movzbl	7(%rax), %eax
 292 02fa 3C01     		cmpb	$1, %al
 293 02fc 0F859A00 		jne	.L12
 293      0000
  80:./pdi/source/escrita.c **** 				matriz[i][j].luma = team1.luma;
 294              		.loc 1 80 0
 295 0302 8B45E8   		movl	-24(%rbp), %eax
 296 0305 4898     		cltq
 297 0307 488D14C5 		leaq	0(,%rax,8), %rdx
 297      00000000 
 298 030f 488B45D8 		movq	-40(%rbp), %rax
 299 0313 4801D0   		addq	%rdx, %rax
 300 0316 488B08   		movq	(%rax), %rcx
 301 0319 8B45EC   		movl	-20(%rbp), %eax
 302 031c 4863D0   		movslq	%eax, %rdx
 303 031f 4889D0   		movq	%rdx, %rax
 304 0322 48C1E003 		salq	$3, %rax
 305 0326 4801D0   		addq	%rdx, %rax
 306 0329 488D1401 		leaq	(%rcx,%rax), %rdx
 307 032d 0FB645C8 		movzbl	-56(%rbp), %eax
 308 0331 8802     		movb	%al, (%rdx)
  81:./pdi/source/escrita.c **** 				matriz[i][j].cb = team1.cb;
 309              		.loc 1 81 0
 310 0333 8B45E8   		movl	-24(%rbp), %eax
 311 0336 4898     		cltq
 312 0338 488D14C5 		leaq	0(,%rax,8), %rdx
 312      00000000 
 313 0340 488B45D8 		movq	-40(%rbp), %rax
 314 0344 4801D0   		addq	%rdx, %rax
 315 0347 488B08   		movq	(%rax), %rcx
 316 034a 8B45EC   		movl	-20(%rbp), %eax
 317 034d 4863D0   		movslq	%eax, %rdx
 318 0350 4889D0   		movq	%rdx, %rax
 319 0353 48C1E003 		salq	$3, %rax
 320 0357 4801D0   		addq	%rdx, %rax
 321 035a 488D1401 		leaq	(%rcx,%rax), %rdx
 322 035e 0FB645C9 		movzbl	-55(%rbp), %eax
 323 0362 884201   		movb	%al, 1(%rdx)
  82:./pdi/source/escrita.c **** 				matriz[i][j].cr = team1.cr;
 324              		.loc 1 82 0
 325 0365 8B45E8   		movl	-24(%rbp), %eax
 326 0368 4898     		cltq
GAS LISTING /tmp/ccmGtSBt.s 			page 9


 327 036a 488D14C5 		leaq	0(,%rax,8), %rdx
 327      00000000 
 328 0372 488B45D8 		movq	-40(%rbp), %rax
 329 0376 4801D0   		addq	%rdx, %rax
 330 0379 488B08   		movq	(%rax), %rcx
 331 037c 8B45EC   		movl	-20(%rbp), %eax
 332 037f 4863D0   		movslq	%eax, %rdx
 333 0382 4889D0   		movq	%rdx, %rax
 334 0385 48C1E003 		salq	$3, %rax
 335 0389 4801D0   		addq	%rdx, %rax
 336 038c 488D1401 		leaq	(%rcx,%rax), %rdx
 337 0390 0FB645CA 		movzbl	-54(%rbp), %eax
 338 0394 884202   		movb	%al, 2(%rdx)
 339 0397 E9CB0000 		jmp	.L13
 339      00
 340              	.L12:
  83:./pdi/source/escrita.c **** 			} else if (matriz[i][j].team == 2) {
 341              		.loc 1 83 0
 342 039c 8B45E8   		movl	-24(%rbp), %eax
 343 039f 4898     		cltq
 344 03a1 488D14C5 		leaq	0(,%rax,8), %rdx
 344      00000000 
 345 03a9 488B45D8 		movq	-40(%rbp), %rax
 346 03ad 4801D0   		addq	%rdx, %rax
 347 03b0 488B08   		movq	(%rax), %rcx
 348 03b3 8B45EC   		movl	-20(%rbp), %eax
 349 03b6 4863D0   		movslq	%eax, %rdx
 350 03b9 4889D0   		movq	%rdx, %rax
 351 03bc 48C1E003 		salq	$3, %rax
 352 03c0 4801D0   		addq	%rdx, %rax
 353 03c3 4801C8   		addq	%rcx, %rax
 354 03c6 0FB64007 		movzbl	7(%rax), %eax
 355 03ca 3C02     		cmpb	$2, %al
 356 03cc 0F859500 		jne	.L13
 356      0000
  84:./pdi/source/escrita.c **** 				matriz[i][j].luma = team2.luma;
 357              		.loc 1 84 0
 358 03d2 8B45E8   		movl	-24(%rbp), %eax
 359 03d5 4898     		cltq
 360 03d7 488D14C5 		leaq	0(,%rax,8), %rdx
 360      00000000 
 361 03df 488B45D8 		movq	-40(%rbp), %rax
 362 03e3 4801D0   		addq	%rdx, %rax
 363 03e6 488B08   		movq	(%rax), %rcx
 364 03e9 8B45EC   		movl	-20(%rbp), %eax
 365 03ec 4863D0   		movslq	%eax, %rdx
 366 03ef 4889D0   		movq	%rdx, %rax
 367 03f2 48C1E003 		salq	$3, %rax
 368 03f6 4801D0   		addq	%rdx, %rax
 369 03f9 488D1401 		leaq	(%rcx,%rax), %rdx
 370 03fd 0FB645B8 		movzbl	-72(%rbp), %eax
 371 0401 8802     		movb	%al, (%rdx)
  85:./pdi/source/escrita.c **** 				matriz[i][j].cb = team2.cb;
 372              		.loc 1 85 0
 373 0403 8B45E8   		movl	-24(%rbp), %eax
 374 0406 4898     		cltq
 375 0408 488D14C5 		leaq	0(,%rax,8), %rdx
GAS LISTING /tmp/ccmGtSBt.s 			page 10


 375      00000000 
 376 0410 488B45D8 		movq	-40(%rbp), %rax
 377 0414 4801D0   		addq	%rdx, %rax
 378 0417 488B08   		movq	(%rax), %rcx
 379 041a 8B45EC   		movl	-20(%rbp), %eax
 380 041d 4863D0   		movslq	%eax, %rdx
 381 0420 4889D0   		movq	%rdx, %rax
 382 0423 48C1E003 		salq	$3, %rax
 383 0427 4801D0   		addq	%rdx, %rax
 384 042a 488D1401 		leaq	(%rcx,%rax), %rdx
 385 042e 0FB645B9 		movzbl	-71(%rbp), %eax
 386 0432 884201   		movb	%al, 1(%rdx)
  86:./pdi/source/escrita.c **** 				matriz[i][j].cr = team2.cr;
 387              		.loc 1 86 0
 388 0435 8B45E8   		movl	-24(%rbp), %eax
 389 0438 4898     		cltq
 390 043a 488D14C5 		leaq	0(,%rax,8), %rdx
 390      00000000 
 391 0442 488B45D8 		movq	-40(%rbp), %rax
 392 0446 4801D0   		addq	%rdx, %rax
 393 0449 488B08   		movq	(%rax), %rcx
 394 044c 8B45EC   		movl	-20(%rbp), %eax
 395 044f 4863D0   		movslq	%eax, %rdx
 396 0452 4889D0   		movq	%rdx, %rax
 397 0455 48C1E003 		salq	$3, %rax
 398 0459 4801D0   		addq	%rdx, %rax
 399 045c 488D1401 		leaq	(%rcx,%rax), %rdx
 400 0460 0FB645BA 		movzbl	-70(%rbp), %eax
 401 0464 884202   		movb	%al, 2(%rdx)
 402              	.L13:
  75:./pdi/source/escrita.c **** 			matriz[i][j].luma = 0;
 403              		.loc 1 75 0 discriminator 2
 404 0467 8345EC01 		addl	$1, -20(%rbp)
 405              	.L11:
  75:./pdi/source/escrita.c **** 			matriz[i][j].luma = 0;
 406              		.loc 1 75 0 is_stmt 0 discriminator 1
 407 046b 817DEC20 		cmpl	$544, -20(%rbp)
 407      020000
 408 0472 0F8ECBFD 		jle	.L14
 408      FFFF
  74:./pdi/source/escrita.c **** 		for (j = largmin; j < largmax; j++) {
 409              		.loc 1 74 0 is_stmt 1 discriminator 2
 410 0478 8345E801 		addl	$1, -24(%rbp)
 411              	.L10:
  74:./pdi/source/escrita.c **** 		for (j = largmin; j < largmax; j++) {
 412              		.loc 1 74 0 is_stmt 0 discriminator 1
 413 047c 817DE86B 		cmpl	$363, -24(%rbp)
 413      010000
 414 0483 0F8EAEFD 		jle	.L15
 414      FFFF
  87:./pdi/source/escrita.c **** 			}
  88:./pdi/source/escrita.c **** 		}
  89:./pdi/source/escrita.c **** 	}
  90:./pdi/source/escrita.c **** }
 415              		.loc 1 90 0 is_stmt 1
 416 0489 C9       		leave
 417              		.cfi_def_cfa 7, 8
GAS LISTING /tmp/ccmGtSBt.s 			page 11


 418 048a C3       		ret
 419              		.cfi_endproc
 420              	.LFE4:
 421              		.size	generate_teams, .-generate_teams
 422              		.globl	generate_prox_teams
 423              		.type	generate_prox_teams, @function
 424              	generate_prox_teams:
 425              	.LFB5:
  91:./pdi/source/escrita.c **** 
  92:./pdi/source/escrita.c **** 
  93:./pdi/source/escrita.c **** void generate_prox_teams(struct pixel **matriz){
 426              		.loc 1 93 0
 427              		.cfi_startproc
 428 048b 55       		pushq	%rbp
 429              		.cfi_def_cfa_offset 16
 430              		.cfi_offset 6, -16
 431 048c 4889E5   		movq	%rsp, %rbp
 432              		.cfi_def_cfa_register 6
 433 048f 48897DE8 		movq	%rdi, -24(%rbp)
  94:./pdi/source/escrita.c ****         int i, j, x ,y;
  95:./pdi/source/escrita.c ****         for (i = altmin; i < altmax; i++) {
 434              		.loc 1 95 0
 435 0493 C745F06E 		movl	$110, -16(%rbp)
 435      000000
 436 049a E9FF0000 		jmp	.L17
 436      00
 437              	.L26:
  96:./pdi/source/escrita.c ****            for (j = largmin; j < largmax; j++) {
 438              		.loc 1 96 0
 439 049f C745F454 		movl	$340, -12(%rbp)
 439      010000
 440 04a6 E9E20000 		jmp	.L18
 440      00
 441              	.L25:
  97:./pdi/source/escrita.c ****               matriz[i][j].prox_team = 0;
 442              		.loc 1 97 0
 443 04ab 8B45F0   		movl	-16(%rbp), %eax
 444 04ae 4898     		cltq
 445 04b0 488D14C5 		leaq	0(,%rax,8), %rdx
 445      00000000 
 446 04b8 488B45E8 		movq	-24(%rbp), %rax
 447 04bc 4801D0   		addq	%rdx, %rax
 448 04bf 488B08   		movq	(%rax), %rcx
 449 04c2 8B45F4   		movl	-12(%rbp), %eax
 450 04c5 4863D0   		movslq	%eax, %rdx
 451 04c8 4889D0   		movq	%rdx, %rax
 452 04cb 48C1E003 		salq	$3, %rax
 453 04cf 4801D0   		addq	%rdx, %rax
 454 04d2 4801C8   		addq	%rcx, %rax
 455 04d5 C6400800 		movb	$0, 8(%rax)
  98:./pdi/source/escrita.c ****                 for (x = -1; x <= 1; x++) {
 456              		.loc 1 98 0
 457 04d9 C745F8FF 		movl	$-1, -8(%rbp)
 457      FFFFFF
 458 04e0 E99A0000 		jmp	.L19
 458      00
 459              	.L24:
GAS LISTING /tmp/ccmGtSBt.s 			page 12


  99:./pdi/source/escrita.c ****                    for (y = -1; y <= 1; y++) {
 460              		.loc 1 99 0
 461 04e5 C745FCFF 		movl	$-1, -4(%rbp)
 461      FFFFFF
 462 04ec E9800000 		jmp	.L20
 462      00
 463              	.L23:
 100:./pdi/source/escrita.c ****                         if (x != 0 || y != 0) {
 464              		.loc 1 100 0
 465 04f1 837DF800 		cmpl	$0, -8(%rbp)
 466 04f5 7506     		jne	.L21
 467              		.loc 1 100 0 is_stmt 0 discriminator 1
 468 04f7 837DFC00 		cmpl	$0, -4(%rbp)
 469 04fb 7470     		je	.L22
 470              	.L21:
 101:./pdi/source/escrita.c ****                           if (matriz[i+x][j+y].team != 0) {
 471              		.loc 1 101 0 is_stmt 1
 472 04fd 8B55F0   		movl	-16(%rbp), %edx
 473 0500 8B45F8   		movl	-8(%rbp), %eax
 474 0503 01D0     		addl	%edx, %eax
 475 0505 4898     		cltq
 476 0507 488D14C5 		leaq	0(,%rax,8), %rdx
 476      00000000 
 477 050f 488B45E8 		movq	-24(%rbp), %rax
 478 0513 4801D0   		addq	%rdx, %rax
 479 0516 488B08   		movq	(%rax), %rcx
 480 0519 8B55F4   		movl	-12(%rbp), %edx
 481 051c 8B45FC   		movl	-4(%rbp), %eax
 482 051f 01D0     		addl	%edx, %eax
 483 0521 4863D0   		movslq	%eax, %rdx
 484 0524 4889D0   		movq	%rdx, %rax
 485 0527 48C1E003 		salq	$3, %rax
 486 052b 4801D0   		addq	%rdx, %rax
 487 052e 4801C8   		addq	%rcx, %rax
 488 0531 0FB64007 		movzbl	7(%rax), %eax
 489 0535 84C0     		testb	%al, %al
 490 0537 7434     		je	.L22
 102:./pdi/source/escrita.c ****                             matriz[i][j].prox_team++;
 491              		.loc 1 102 0
 492 0539 8B45F0   		movl	-16(%rbp), %eax
 493 053c 4898     		cltq
 494 053e 488D14C5 		leaq	0(,%rax,8), %rdx
 494      00000000 
 495 0546 488B45E8 		movq	-24(%rbp), %rax
 496 054a 4801D0   		addq	%rdx, %rax
 497 054d 488B08   		movq	(%rax), %rcx
 498 0550 8B45F4   		movl	-12(%rbp), %eax
 499 0553 4863D0   		movslq	%eax, %rdx
 500 0556 4889D0   		movq	%rdx, %rax
 501 0559 48C1E003 		salq	$3, %rax
 502 055d 4801D0   		addq	%rdx, %rax
 503 0560 4801C8   		addq	%rcx, %rax
 504 0563 0FB65008 		movzbl	8(%rax), %edx
 505 0567 83C201   		addl	$1, %edx
 506 056a 885008   		movb	%dl, 8(%rax)
 507              	.L22:
  99:./pdi/source/escrita.c ****                         if (x != 0 || y != 0) {
GAS LISTING /tmp/ccmGtSBt.s 			page 13


 508              		.loc 1 99 0 discriminator 2
 509 056d 8345FC01 		addl	$1, -4(%rbp)
 510              	.L20:
  99:./pdi/source/escrita.c ****                         if (x != 0 || y != 0) {
 511              		.loc 1 99 0 is_stmt 0 discriminator 1
 512 0571 837DFC01 		cmpl	$1, -4(%rbp)
 513 0575 0F8E76FF 		jle	.L23
 513      FFFF
  98:./pdi/source/escrita.c ****                    for (y = -1; y <= 1; y++) {
 514              		.loc 1 98 0 is_stmt 1 discriminator 2
 515 057b 8345F801 		addl	$1, -8(%rbp)
 516              	.L19:
  98:./pdi/source/escrita.c ****                    for (y = -1; y <= 1; y++) {
 517              		.loc 1 98 0 is_stmt 0 discriminator 1
 518 057f 837DF801 		cmpl	$1, -8(%rbp)
 519 0583 0F8E5CFF 		jle	.L24
 519      FFFF
  96:./pdi/source/escrita.c ****               matriz[i][j].prox_team = 0;
 520              		.loc 1 96 0 is_stmt 1 discriminator 2
 521 0589 8345F401 		addl	$1, -12(%rbp)
 522              	.L18:
  96:./pdi/source/escrita.c ****               matriz[i][j].prox_team = 0;
 523              		.loc 1 96 0 is_stmt 0 discriminator 1
 524 058d 817DF420 		cmpl	$544, -12(%rbp)
 524      020000
 525 0594 0F8E11FF 		jle	.L25
 525      FFFF
  95:./pdi/source/escrita.c ****            for (j = largmin; j < largmax; j++) {
 526              		.loc 1 95 0 is_stmt 1 discriminator 2
 527 059a 8345F001 		addl	$1, -16(%rbp)
 528              	.L17:
  95:./pdi/source/escrita.c ****            for (j = largmin; j < largmax; j++) {
 529              		.loc 1 95 0 is_stmt 0 discriminator 1
 530 059e 817DF06B 		cmpl	$363, -16(%rbp)
 530      010000
 531 05a5 0F8EF4FE 		jle	.L26
 531      FFFF
 103:./pdi/source/escrita.c ****                         }
 104:./pdi/source/escrita.c ****                       }
 105:./pdi/source/escrita.c ****                    }
 106:./pdi/source/escrita.c ****                 }
 107:./pdi/source/escrita.c ****            }
 108:./pdi/source/escrita.c ****         }
 109:./pdi/source/escrita.c **** }
 532              		.loc 1 109 0 is_stmt 1
 533 05ab 5D       		popq	%rbp
 534              		.cfi_def_cfa 7, 8
 535 05ac C3       		ret
 536              		.cfi_endproc
 537              	.LFE5:
 538              		.size	generate_prox_teams, .-generate_prox_teams
 539              		.globl	shrink_teams
 540              		.type	shrink_teams, @function
 541              	shrink_teams:
 542              	.LFB6:
 110:./pdi/source/escrita.c **** 
 111:./pdi/source/escrita.c **** void shrink_teams(struct pixel **matriz, int nprox)
GAS LISTING /tmp/ccmGtSBt.s 			page 14


 112:./pdi/source/escrita.c **** {
 543              		.loc 1 112 0
 544              		.cfi_startproc
 545 05ad 55       		pushq	%rbp
 546              		.cfi_def_cfa_offset 16
 547              		.cfi_offset 6, -16
 548 05ae 4889E5   		movq	%rsp, %rbp
 549              		.cfi_def_cfa_register 6
 550 05b1 48897DE8 		movq	%rdi, -24(%rbp)
 551 05b5 8975E4   		movl	%esi, -28(%rbp)
 113:./pdi/source/escrita.c **** 	int i, j;
 114:./pdi/source/escrita.c **** 	for (i = altmin; i < altmax;i++) {
 552              		.loc 1 114 0
 553 05b8 C745F86E 		movl	$110, -8(%rbp)
 553      000000
 554 05bf EB7E     		jmp	.L28
 555              	.L32:
 115:./pdi/source/escrita.c **** 	  for (j = largmin; j < largmax; j++) {
 556              		.loc 1 115 0
 557 05c1 C745FC54 		movl	$340, -4(%rbp)
 557      010000
 558 05c8 EB68     		jmp	.L29
 559              	.L31:
 116:./pdi/source/escrita.c **** 	    if(matriz[i][j].prox_team<=nprox) {
 560              		.loc 1 116 0
 561 05ca 8B45F8   		movl	-8(%rbp), %eax
 562 05cd 4898     		cltq
 563 05cf 488D14C5 		leaq	0(,%rax,8), %rdx
 563      00000000 
 564 05d7 488B45E8 		movq	-24(%rbp), %rax
 565 05db 4801D0   		addq	%rdx, %rax
 566 05de 488B08   		movq	(%rax), %rcx
 567 05e1 8B45FC   		movl	-4(%rbp), %eax
 568 05e4 4863D0   		movslq	%eax, %rdx
 569 05e7 4889D0   		movq	%rdx, %rax
 570 05ea 48C1E003 		salq	$3, %rax
 571 05ee 4801D0   		addq	%rdx, %rax
 572 05f1 4801C8   		addq	%rcx, %rax
 573 05f4 0FB64008 		movzbl	8(%rax), %eax
 574 05f8 0FB6C0   		movzbl	%al, %eax
 575 05fb 3B45E4   		cmpl	-28(%rbp), %eax
 576 05fe 7F2E     		jg	.L30
 117:./pdi/source/escrita.c **** 	      matriz[i][j].team = 0;
 577              		.loc 1 117 0
 578 0600 8B45F8   		movl	-8(%rbp), %eax
 579 0603 4898     		cltq
 580 0605 488D14C5 		leaq	0(,%rax,8), %rdx
 580      00000000 
 581 060d 488B45E8 		movq	-24(%rbp), %rax
 582 0611 4801D0   		addq	%rdx, %rax
 583 0614 488B08   		movq	(%rax), %rcx
 584 0617 8B45FC   		movl	-4(%rbp), %eax
 585 061a 4863D0   		movslq	%eax, %rdx
 586 061d 4889D0   		movq	%rdx, %rax
 587 0620 48C1E003 		salq	$3, %rax
 588 0624 4801D0   		addq	%rdx, %rax
 589 0627 4801C8   		addq	%rcx, %rax
GAS LISTING /tmp/ccmGtSBt.s 			page 15


 590 062a C6400700 		movb	$0, 7(%rax)
 591              	.L30:
 115:./pdi/source/escrita.c **** 	  for (j = largmin; j < largmax; j++) {
 592              		.loc 1 115 0 discriminator 2
 593 062e 8345FC01 		addl	$1, -4(%rbp)
 594              	.L29:
 115:./pdi/source/escrita.c **** 	  for (j = largmin; j < largmax; j++) {
 595              		.loc 1 115 0 is_stmt 0 discriminator 1
 596 0632 817DFC20 		cmpl	$544, -4(%rbp)
 596      020000
 597 0639 7E8F     		jle	.L31
 114:./pdi/source/escrita.c **** 	  for (j = largmin; j < largmax; j++) {
 598              		.loc 1 114 0 is_stmt 1 discriminator 2
 599 063b 8345F801 		addl	$1, -8(%rbp)
 600              	.L28:
 114:./pdi/source/escrita.c **** 	  for (j = largmin; j < largmax; j++) {
 601              		.loc 1 114 0 is_stmt 0 discriminator 1
 602 063f 817DF86B 		cmpl	$363, -8(%rbp)
 602      010000
 603 0646 0F8E75FF 		jle	.L32
 603      FFFF
 118:./pdi/source/escrita.c **** 	    }
 119:./pdi/source/escrita.c **** 	  }
 120:./pdi/source/escrita.c **** 	}
 121:./pdi/source/escrita.c **** }
 604              		.loc 1 121 0 is_stmt 1
 605 064c 5D       		popq	%rbp
 606              		.cfi_def_cfa 7, 8
 607 064d C3       		ret
 608              		.cfi_endproc
 609              	.LFE6:
 610              		.size	shrink_teams, .-shrink_teams
 611              		.globl	swell_teams
 612              		.type	swell_teams, @function
 613              	swell_teams:
 614              	.LFB7:
 122:./pdi/source/escrita.c **** 
 123:./pdi/source/escrita.c **** void swell_teams(struct pixel **matriz, int nprox)
 124:./pdi/source/escrita.c **** {
 615              		.loc 1 124 0
 616              		.cfi_startproc
 617 064e 55       		pushq	%rbp
 618              		.cfi_def_cfa_offset 16
 619              		.cfi_offset 6, -16
 620 064f 4889E5   		movq	%rsp, %rbp
 621              		.cfi_def_cfa_register 6
 622 0652 48897DE8 		movq	%rdi, -24(%rbp)
 623 0656 8975E4   		movl	%esi, -28(%rbp)
 125:./pdi/source/escrita.c **** 	int i, j;
 126:./pdi/source/escrita.c **** 	for (i = altmin; i < altmax;i++) {
 624              		.loc 1 126 0
 625 0659 C745F86E 		movl	$110, -8(%rbp)
 625      000000
 626 0660 EB7E     		jmp	.L34
 627              	.L38:
 127:./pdi/source/escrita.c **** 	  for (j = largmin; j < largmax; j++) {
 628              		.loc 1 127 0
GAS LISTING /tmp/ccmGtSBt.s 			page 16


 629 0662 C745FC54 		movl	$340, -4(%rbp)
 629      010000
 630 0669 EB68     		jmp	.L35
 631              	.L37:
 128:./pdi/source/escrita.c **** 	    if(matriz[i][j].prox_team>=nprox) {
 632              		.loc 1 128 0
 633 066b 8B45F8   		movl	-8(%rbp), %eax
 634 066e 4898     		cltq
 635 0670 488D14C5 		leaq	0(,%rax,8), %rdx
 635      00000000 
 636 0678 488B45E8 		movq	-24(%rbp), %rax
 637 067c 4801D0   		addq	%rdx, %rax
 638 067f 488B08   		movq	(%rax), %rcx
 639 0682 8B45FC   		movl	-4(%rbp), %eax
 640 0685 4863D0   		movslq	%eax, %rdx
 641 0688 4889D0   		movq	%rdx, %rax
 642 068b 48C1E003 		salq	$3, %rax
 643 068f 4801D0   		addq	%rdx, %rax
 644 0692 4801C8   		addq	%rcx, %rax
 645 0695 0FB64008 		movzbl	8(%rax), %eax
 646 0699 0FB6C0   		movzbl	%al, %eax
 647 069c 3B45E4   		cmpl	-28(%rbp), %eax
 648 069f 7C2E     		jl	.L36
 129:./pdi/source/escrita.c **** 	      matriz[i][j].team = 1;
 649              		.loc 1 129 0
 650 06a1 8B45F8   		movl	-8(%rbp), %eax
 651 06a4 4898     		cltq
 652 06a6 488D14C5 		leaq	0(,%rax,8), %rdx
 652      00000000 
 653 06ae 488B45E8 		movq	-24(%rbp), %rax
 654 06b2 4801D0   		addq	%rdx, %rax
 655 06b5 488B08   		movq	(%rax), %rcx
 656 06b8 8B45FC   		movl	-4(%rbp), %eax
 657 06bb 4863D0   		movslq	%eax, %rdx
 658 06be 4889D0   		movq	%rdx, %rax
 659 06c1 48C1E003 		salq	$3, %rax
 660 06c5 4801D0   		addq	%rdx, %rax
 661 06c8 4801C8   		addq	%rcx, %rax
 662 06cb C6400701 		movb	$1, 7(%rax)
 663              	.L36:
 127:./pdi/source/escrita.c **** 	  for (j = largmin; j < largmax; j++) {
 664              		.loc 1 127 0 discriminator 2
 665 06cf 8345FC01 		addl	$1, -4(%rbp)
 666              	.L35:
 127:./pdi/source/escrita.c **** 	  for (j = largmin; j < largmax; j++) {
 667              		.loc 1 127 0 is_stmt 0 discriminator 1
 668 06d3 817DFC20 		cmpl	$544, -4(%rbp)
 668      020000
 669 06da 7E8F     		jle	.L37
 126:./pdi/source/escrita.c **** 	  for (j = largmin; j < largmax; j++) {
 670              		.loc 1 126 0 is_stmt 1 discriminator 2
 671 06dc 8345F801 		addl	$1, -8(%rbp)
 672              	.L34:
 126:./pdi/source/escrita.c **** 	  for (j = largmin; j < largmax; j++) {
 673              		.loc 1 126 0 is_stmt 0 discriminator 1
 674 06e0 817DF86B 		cmpl	$363, -8(%rbp)
 674      010000
GAS LISTING /tmp/ccmGtSBt.s 			page 17


 675 06e7 0F8E75FF 		jle	.L38
 675      FFFF
 130:./pdi/source/escrita.c **** 	    }
 131:./pdi/source/escrita.c **** 	  }
 132:./pdi/source/escrita.c **** 	}
 133:./pdi/source/escrita.c **** }
 676              		.loc 1 133 0 is_stmt 1
 677 06ed 5D       		popq	%rbp
 678              		.cfi_def_cfa 7, 8
 679 06ee C3       		ret
 680              		.cfi_endproc
 681              	.LFE7:
 682              		.size	swell_teams, .-swell_teams
 683              		.globl	pix_erro
 684              		.type	pix_erro, @function
 685              	pix_erro:
 686              	.LFB8:
 134:./pdi/source/escrita.c **** 
 135:./pdi/source/escrita.c **** int pix_erro(struct pixel original, struct pixel compare){
 687              		.loc 1 135 0
 688              		.cfi_startproc
 689 06ef 55       		pushq	%rbp
 690              		.cfi_def_cfa_offset 16
 691              		.cfi_offset 6, -16
 692 06f0 4889E5   		movq	%rsp, %rbp
 693              		.cfi_def_cfa_register 6
 694 06f3 89C8     		movl	%ecx, %eax
 695 06f5 48897DE0 		movq	%rdi, -32(%rbp)
 696 06f9 408875E8 		movb	%sil, -24(%rbp)
 697 06fd 488955D0 		movq	%rdx, -48(%rbp)
 698 0701 8845D8   		movb	%al, -40(%rbp)
 136:./pdi/source/escrita.c **** 	int erro = 0;
 699              		.loc 1 136 0
 700 0704 C745FC00 		movl	$0, -4(%rbp)
 700      000000
 137:./pdi/source/escrita.c **** 	erro = abs(original.luma - compare.luma) + 
 701              		.loc 1 137 0
 702 070b 0FB645E0 		movzbl	-32(%rbp), %eax
 703 070f 0FB6D0   		movzbl	%al, %edx
 704 0712 0FB645D0 		movzbl	-48(%rbp), %eax
 705 0716 0FB6C0   		movzbl	%al, %eax
 706 0719 29C2     		subl	%eax, %edx
 707 071b 89D0     		movl	%edx, %eax
 708 071d C1F81F   		sarl	$31, %eax
 709 0720 31C2     		xorl	%eax, %edx
 710 0722 29C2     		subl	%eax, %edx
 138:./pdi/source/escrita.c **** 		abs(original.cb - compare.cb) +
 711              		.loc 1 138 0
 712 0724 0FB645E1 		movzbl	-31(%rbp), %eax
 713 0728 0FB6C8   		movzbl	%al, %ecx
 714 072b 0FB645D1 		movzbl	-47(%rbp), %eax
 715 072f 0FB6C0   		movzbl	%al, %eax
 716 0732 29C1     		subl	%eax, %ecx
 717 0734 89C8     		movl	%ecx, %eax
 718 0736 89C1     		movl	%eax, %ecx
 719 0738 C1F91F   		sarl	$31, %ecx
 720 073b 31C8     		xorl	%ecx, %eax
GAS LISTING /tmp/ccmGtSBt.s 			page 18


 721 073d 29C8     		subl	%ecx, %eax
 137:./pdi/source/escrita.c **** 	erro = abs(original.luma - compare.luma) + 
 722              		.loc 1 137 0
 723 073f 8D0C02   		leal	(%rdx,%rax), %ecx
 139:./pdi/source/escrita.c **** 		abs(original.cr - compare.cr);
 724              		.loc 1 139 0
 725 0742 0FB645E2 		movzbl	-30(%rbp), %eax
 726 0746 0FB6D0   		movzbl	%al, %edx
 727 0749 0FB645D2 		movzbl	-46(%rbp), %eax
 728 074d 0FB6C0   		movzbl	%al, %eax
 729 0750 29C2     		subl	%eax, %edx
 730 0752 89D0     		movl	%edx, %eax
 731 0754 99       		cltd
 732 0755 31D0     		xorl	%edx, %eax
 733 0757 29D0     		subl	%edx, %eax
 137:./pdi/source/escrita.c **** 	erro = abs(original.luma - compare.luma) + 
 734              		.loc 1 137 0
 735 0759 01C8     		addl	%ecx, %eax
 736 075b 8945FC   		movl	%eax, -4(%rbp)
 140:./pdi/source/escrita.c **** 	return erro;
 737              		.loc 1 140 0
 738 075e 8B45FC   		movl	-4(%rbp), %eax
 141:./pdi/source/escrita.c **** }
 739              		.loc 1 141 0
 740 0761 5D       		popq	%rbp
 741              		.cfi_def_cfa 7, 8
 742 0762 C3       		ret
 743              		.cfi_endproc
 744              	.LFE8:
 745              		.size	pix_erro, .-pix_erro
 746              		.section	.rodata
 747              	.LC1:
 748 0015 6F70656E 		.string	"open"
 748      00
 749              	.LC2:
 750 001a 4572726F 		.string	"Erro ao escrever\n"
 750      20616F20 
 750      65736372 
 750      65766572 
 750      0A00
 751              		.text
 752              		.globl	escrita
 753              		.type	escrita, @function
 754              	escrita:
 755              	.LFB9:
 142:./pdi/source/escrita.c **** 
 143:./pdi/source/escrita.c **** 
 144:./pdi/source/escrita.c **** 
 145:./pdi/source/escrita.c **** void escrita(char *arquivo, unsigned char* matriz_temp) {
 756              		.loc 1 145 0
 757              		.cfi_startproc
 758 0763 55       		pushq	%rbp
 759              		.cfi_def_cfa_offset 16
 760              		.cfi_offset 6, -16
 761 0764 4889E5   		movq	%rsp, %rbp
 762              		.cfi_def_cfa_register 6
 763 0767 4883EC20 		subq	$32, %rsp
GAS LISTING /tmp/ccmGtSBt.s 			page 19


 764 076b 48897DE8 		movq	%rdi, -24(%rbp)
 765 076f 488975E0 		movq	%rsi, -32(%rbp)
 146:./pdi/source/escrita.c **** 	int jpgfile;
 147:./pdi/source/escrita.c ****         if((jpgfile = open(arquivo, O_WRONLY | O_CREAT, 0660)) < 0){
 766              		.loc 1 147 0
 767 0773 488B45E8 		movq	-24(%rbp), %rax
 768 0777 BAB00100 		movl	$432, %edx
 768      00
 769 077c BE410000 		movl	$65, %esi
 769      00
 770 0781 4889C7   		movq	%rax, %rdi
 771 0784 B8000000 		movl	$0, %eax
 771      00
 772 0789 E8000000 		call	open
 772      00
 773 078e 8945FC   		movl	%eax, -4(%rbp)
 774 0791 837DFC00 		cmpl	$0, -4(%rbp)
 775 0795 7914     		jns	.L42
 148:./pdi/source/escrita.c ****             perror("open");
 776              		.loc 1 148 0
 777 0797 BF000000 		movl	$.LC1, %edi
 777      00
 778 079c E8000000 		call	perror
 778      00
 149:./pdi/source/escrita.c ****             exit(1);
 779              		.loc 1 149 0
 780 07a1 BF010000 		movl	$1, %edi
 780      00
 781 07a6 E8000000 		call	exit
 781      00
 782              	.L42:
 150:./pdi/source/escrita.c **** 
 151:./pdi/source/escrita.c ****         }
 152:./pdi/source/escrita.c ****         if(write(jpgfile, matriz_temp, altura*largura*2) < 0);
 783              		.loc 1 152 0
 784 07ab 488B4DE0 		movq	-32(%rbp), %rcx
 785 07af 8B45FC   		movl	-4(%rbp), %eax
 786 07b2 BA006009 		movl	$614400, %edx
 786      00
 787 07b7 4889CE   		movq	%rcx, %rsi
 788 07ba 89C7     		movl	%eax, %edi
 789 07bc E8000000 		call	write
 789      00
 153:./pdi/source/escrita.c **** 		perror("Erro ao escrever\n");
 790              		.loc 1 153 0
 791 07c1 BF000000 		movl	$.LC2, %edi
 791      00
 792 07c6 E8000000 		call	perror
 792      00
 154:./pdi/source/escrita.c ****         close(jpgfile);
 793              		.loc 1 154 0
 794 07cb 8B45FC   		movl	-4(%rbp), %eax
 795 07ce 89C7     		movl	%eax, %edi
 796 07d0 E8000000 		call	close
 796      00
 155:./pdi/source/escrita.c **** }
 797              		.loc 1 155 0
GAS LISTING /tmp/ccmGtSBt.s 			page 20


 798 07d5 C9       		leave
 799              		.cfi_def_cfa 7, 8
 800 07d6 C3       		ret
 801              		.cfi_endproc
 802              	.LFE9:
 803              		.size	escrita, .-escrita
 804              		.globl	print_ballcoord
 805              		.type	print_ballcoord, @function
 806              	print_ballcoord:
 807              	.LFB10:
 156:./pdi/source/escrita.c **** 
 157:./pdi/source/escrita.c **** struct CD *print_ballcoord(struct pixel **matriz) {
 808              		.loc 1 157 0
 809              		.cfi_startproc
 810 07d7 55       		pushq	%rbp
 811              		.cfi_def_cfa_offset 16
 812              		.cfi_offset 6, -16
 813 07d8 4889E5   		movq	%rsp, %rbp
 814              		.cfi_def_cfa_register 6
 815 07db 4883EC40 		subq	$64, %rsp
 816 07df 48897DC8 		movq	%rdi, -56(%rbp)
 158:./pdi/source/escrita.c **** 	
 159:./pdi/source/escrita.c **** 	struct CD *cds = malloc(sizeof(struct CD)*19);
 817              		.loc 1 159 0
 818 07e3 BF980000 		movl	$152, %edi
 818      00
 819 07e8 E8000000 		call	malloc
 819      00
 820 07ed 488945D8 		movq	%rax, -40(%rbp)
 160:./pdi/source/escrita.c **** 	struct coordenadas_size aux = detect_regiao(matriz);
 821              		.loc 1 160 0
 822 07f1 488B45C8 		movq	-56(%rbp), %rax
 823 07f5 4889C7   		movq	%rax, %rdi
 824 07f8 E8000000 		call	detect_regiao
 824      00
 825 07fd 488945F0 		movq	%rax, -16(%rbp)
 826 0801 488955F8 		movq	%rdx, -8(%rbp)
 161:./pdi/source/escrita.c ****         struct coordenadas *bolinhas = aux.coord;
 827              		.loc 1 161 0
 828 0805 488B45F0 		movq	-16(%rbp), %rax
 829 0809 488945E0 		movq	%rax, -32(%rbp)
 162:./pdi/source/escrita.c ****         aux.coord = NULL;
 830              		.loc 1 162 0
 831 080d 48C745F0 		movq	$0, -16(%rbp)
 831      00000000 
 163:./pdi/source/escrita.c ****         int nbolinhas = aux.size;
 832              		.loc 1 163 0
 833 0815 8B45F8   		movl	-8(%rbp), %eax
 834 0818 8945D4   		movl	%eax, -44(%rbp)
 164:./pdi/source/escrita.c ****         struct coordenadas *hashtag = generate_hashtag(bolinhas, nbolinhas);
 835              		.loc 1 164 0
 836 081b 8B55D4   		movl	-44(%rbp), %edx
 837 081e 488B45E0 		movq	-32(%rbp), %rax
 838 0822 89D6     		movl	%edx, %esi
 839 0824 4889C7   		movq	%rax, %rdi
 840 0827 E8000000 		call	generate_hashtag
 840      00
GAS LISTING /tmp/ccmGtSBt.s 			page 21


 841 082c 488945E8 		movq	%rax, -24(%rbp)
 165:./pdi/source/escrita.c ****         int i;
 166:./pdi/source/escrita.c **** 
 167:./pdi/source/escrita.c ****         for (i = 0; i < 3; i++) {
 842              		.loc 1 167 0
 843 0830 C745D000 		movl	$0, -48(%rbp)
 843      000000
 844 0837 E9DC0100 		jmp	.L44
 844      00
 845              	.L45:
 168:./pdi/source/escrita.c ****                 cds[0 + 3*i].X = hashtag[6 + i].X;
 846              		.loc 1 168 0 discriminator 3
 847 083c 8B45D0   		movl	-48(%rbp), %eax
 848 083f 4863D0   		movslq	%eax, %rdx
 849 0842 4889D0   		movq	%rdx, %rax
 850 0845 4801C0   		addq	%rax, %rax
 851 0848 4801D0   		addq	%rdx, %rax
 852 084b 48C1E003 		salq	$3, %rax
 853 084f 4889C2   		movq	%rax, %rdx
 854 0852 488B45D8 		movq	-40(%rbp), %rax
 855 0856 488D0C02 		leaq	(%rdx,%rax), %rcx
 856 085a 8B45D0   		movl	-48(%rbp), %eax
 857 085d 83C006   		addl	$6, %eax
 858 0860 4863D0   		movslq	%eax, %rdx
 859 0863 4889D0   		movq	%rdx, %rax
 860 0866 4801C0   		addq	%rax, %rax
 861 0869 4801D0   		addq	%rdx, %rax
 862 086c 48C1E002 		salq	$2, %rax
 863 0870 4889C2   		movq	%rax, %rdx
 864 0873 488B45E8 		movq	-24(%rbp), %rax
 865 0877 4801D0   		addq	%rdx, %rax
 866 087a 8B00     		movl	(%rax), %eax
 867 087c 660FEFC0 		pxor	%xmm0, %xmm0
 868 0880 F30F2AC0 		cvtsi2ss	%eax, %xmm0
 869 0884 660F7EC0 		movd	%xmm0, %eax
 870 0888 8901     		movl	%eax, (%rcx)
 169:./pdi/source/escrita.c ****                 cds[0 + 3*i].Y = hashtag[6 + i].Y;
 871              		.loc 1 169 0 discriminator 3
 872 088a 8B45D0   		movl	-48(%rbp), %eax
 873 088d 4863D0   		movslq	%eax, %rdx
 874 0890 4889D0   		movq	%rdx, %rax
 875 0893 4801C0   		addq	%rax, %rax
 876 0896 4801D0   		addq	%rdx, %rax
 877 0899 48C1E003 		salq	$3, %rax
 878 089d 4889C2   		movq	%rax, %rdx
 879 08a0 488B45D8 		movq	-40(%rbp), %rax
 880 08a4 488D0C02 		leaq	(%rdx,%rax), %rcx
 881 08a8 8B45D0   		movl	-48(%rbp), %eax
 882 08ab 83C006   		addl	$6, %eax
 883 08ae 4863D0   		movslq	%eax, %rdx
 884 08b1 4889D0   		movq	%rdx, %rax
 885 08b4 4801C0   		addq	%rax, %rax
 886 08b7 4801D0   		addq	%rdx, %rax
 887 08ba 48C1E002 		salq	$2, %rax
 888 08be 4889C2   		movq	%rax, %rdx
 889 08c1 488B45E8 		movq	-24(%rbp), %rax
 890 08c5 4801D0   		addq	%rdx, %rax
GAS LISTING /tmp/ccmGtSBt.s 			page 22


 891 08c8 8B4004   		movl	4(%rax), %eax
 892 08cb 660FEFC9 		pxor	%xmm1, %xmm1
 893 08cf F30F2AC8 		cvtsi2ss	%eax, %xmm1
 894 08d3 660F7EC8 		movd	%xmm1, %eax
 895 08d7 894104   		movl	%eax, 4(%rcx)
 170:./pdi/source/escrita.c **** 
 171:./pdi/source/escrita.c ****                 cds[1 + 3*i].X = hashtag[3 + i].X;
 896              		.loc 1 171 0 discriminator 3
 897 08da 8B45D0   		movl	-48(%rbp), %eax
 898 08dd 4863D0   		movslq	%eax, %rdx
 899 08e0 4889D0   		movq	%rdx, %rax
 900 08e3 4801C0   		addq	%rax, %rax
 901 08e6 4801D0   		addq	%rdx, %rax
 902 08e9 48C1E003 		salq	$3, %rax
 903 08ed 488D5008 		leaq	8(%rax), %rdx
 904 08f1 488B45D8 		movq	-40(%rbp), %rax
 905 08f5 488D0C02 		leaq	(%rdx,%rax), %rcx
 906 08f9 8B45D0   		movl	-48(%rbp), %eax
 907 08fc 83C003   		addl	$3, %eax
 908 08ff 4863D0   		movslq	%eax, %rdx
 909 0902 4889D0   		movq	%rdx, %rax
 910 0905 4801C0   		addq	%rax, %rax
 911 0908 4801D0   		addq	%rdx, %rax
 912 090b 48C1E002 		salq	$2, %rax
 913 090f 4889C2   		movq	%rax, %rdx
 914 0912 488B45E8 		movq	-24(%rbp), %rax
 915 0916 4801D0   		addq	%rdx, %rax
 916 0919 8B00     		movl	(%rax), %eax
 917 091b 660FEFD2 		pxor	%xmm2, %xmm2
 918 091f F30F2AD0 		cvtsi2ss	%eax, %xmm2
 919 0923 660F7ED0 		movd	%xmm2, %eax
 920 0927 8901     		movl	%eax, (%rcx)
 172:./pdi/source/escrita.c ****                 cds[1 + 3*i].Y = hashtag[3 + i].Y;
 921              		.loc 1 172 0 discriminator 3
 922 0929 8B45D0   		movl	-48(%rbp), %eax
 923 092c 4863D0   		movslq	%eax, %rdx
 924 092f 4889D0   		movq	%rdx, %rax
 925 0932 4801C0   		addq	%rax, %rax
 926 0935 4801D0   		addq	%rdx, %rax
 927 0938 48C1E003 		salq	$3, %rax
 928 093c 488D5008 		leaq	8(%rax), %rdx
 929 0940 488B45D8 		movq	-40(%rbp), %rax
 930 0944 488D0C02 		leaq	(%rdx,%rax), %rcx
 931 0948 8B45D0   		movl	-48(%rbp), %eax
 932 094b 83C003   		addl	$3, %eax
 933 094e 4863D0   		movslq	%eax, %rdx
 934 0951 4889D0   		movq	%rdx, %rax
 935 0954 4801C0   		addq	%rax, %rax
 936 0957 4801D0   		addq	%rdx, %rax
 937 095a 48C1E002 		salq	$2, %rax
 938 095e 4889C2   		movq	%rax, %rdx
 939 0961 488B45E8 		movq	-24(%rbp), %rax
 940 0965 4801D0   		addq	%rdx, %rax
 941 0968 8B4004   		movl	4(%rax), %eax
 942 096b 660FEFDB 		pxor	%xmm3, %xmm3
 943 096f F30F2AD8 		cvtsi2ss	%eax, %xmm3
 944 0973 660F7ED8 		movd	%xmm3, %eax
GAS LISTING /tmp/ccmGtSBt.s 			page 23


 945 0977 894104   		movl	%eax, 4(%rcx)
 173:./pdi/source/escrita.c **** 
 174:./pdi/source/escrita.c ****                 cds[2 + 3*i].X = hashtag[0 + i].X;
 946              		.loc 1 174 0 discriminator 3
 947 097a 8B45D0   		movl	-48(%rbp), %eax
 948 097d 4863D0   		movslq	%eax, %rdx
 949 0980 4889D0   		movq	%rdx, %rax
 950 0983 4801C0   		addq	%rax, %rax
 951 0986 4801D0   		addq	%rdx, %rax
 952 0989 48C1E003 		salq	$3, %rax
 953 098d 488D5010 		leaq	16(%rax), %rdx
 954 0991 488B45D8 		movq	-40(%rbp), %rax
 955 0995 488D0C02 		leaq	(%rdx,%rax), %rcx
 956 0999 8B45D0   		movl	-48(%rbp), %eax
 957 099c 4863D0   		movslq	%eax, %rdx
 958 099f 4889D0   		movq	%rdx, %rax
 959 09a2 4801C0   		addq	%rax, %rax
 960 09a5 4801D0   		addq	%rdx, %rax
 961 09a8 48C1E002 		salq	$2, %rax
 962 09ac 4889C2   		movq	%rax, %rdx
 963 09af 488B45E8 		movq	-24(%rbp), %rax
 964 09b3 4801D0   		addq	%rdx, %rax
 965 09b6 8B00     		movl	(%rax), %eax
 966 09b8 660FEFE4 		pxor	%xmm4, %xmm4
 967 09bc F30F2AE0 		cvtsi2ss	%eax, %xmm4
 968 09c0 660F7EE0 		movd	%xmm4, %eax
 969 09c4 8901     		movl	%eax, (%rcx)
 175:./pdi/source/escrita.c ****                 cds[2 + 3*i].Y = hashtag[0 + i].Y;
 970              		.loc 1 175 0 discriminator 3
 971 09c6 8B45D0   		movl	-48(%rbp), %eax
 972 09c9 4863D0   		movslq	%eax, %rdx
 973 09cc 4889D0   		movq	%rdx, %rax
 974 09cf 4801C0   		addq	%rax, %rax
 975 09d2 4801D0   		addq	%rdx, %rax
 976 09d5 48C1E003 		salq	$3, %rax
 977 09d9 488D5010 		leaq	16(%rax), %rdx
 978 09dd 488B45D8 		movq	-40(%rbp), %rax
 979 09e1 488D0C02 		leaq	(%rdx,%rax), %rcx
 980 09e5 8B45D0   		movl	-48(%rbp), %eax
 981 09e8 4863D0   		movslq	%eax, %rdx
 982 09eb 4889D0   		movq	%rdx, %rax
 983 09ee 4801C0   		addq	%rax, %rax
 984 09f1 4801D0   		addq	%rdx, %rax
 985 09f4 48C1E002 		salq	$2, %rax
 986 09f8 4889C2   		movq	%rax, %rdx
 987 09fb 488B45E8 		movq	-24(%rbp), %rax
 988 09ff 4801D0   		addq	%rdx, %rax
 989 0a02 8B4004   		movl	4(%rax), %eax
 990 0a05 660FEFED 		pxor	%xmm5, %xmm5
 991 0a09 F30F2AE8 		cvtsi2ss	%eax, %xmm5
 992 0a0d 660F7EE8 		movd	%xmm5, %eax
 993 0a11 894104   		movl	%eax, 4(%rcx)
 167:./pdi/source/escrita.c ****                 cds[0 + 3*i].X = hashtag[6 + i].X;
 994              		.loc 1 167 0 discriminator 3
 995 0a14 8345D001 		addl	$1, -48(%rbp)
 996              	.L44:
 167:./pdi/source/escrita.c ****                 cds[0 + 3*i].X = hashtag[6 + i].X;
GAS LISTING /tmp/ccmGtSBt.s 			page 24


 997              		.loc 1 167 0 is_stmt 0 discriminator 1
 998 0a18 837DD002 		cmpl	$2, -48(%rbp)
 999 0a1c 0F8E1AFE 		jle	.L45
 999      FFFF
 176:./pdi/source/escrita.c ****         }
 177:./pdi/source/escrita.c **** 
 178:./pdi/source/escrita.c ****         for (i = 0; i < 10; i++) {
 1000              		.loc 1 178 0 is_stmt 1
 1001 0a22 C745D000 		movl	$0, -48(%rbp)
 1001      000000
 1002 0a29 E9900000 		jmp	.L46
 1002      00
 1003              	.L47:
 179:./pdi/source/escrita.c ****                 cds[9 + i].X = bolinhas[i].X;
 1004              		.loc 1 179 0 discriminator 3
 1005 0a2e 8B45D0   		movl	-48(%rbp), %eax
 1006 0a31 83C009   		addl	$9, %eax
 1007 0a34 4898     		cltq
 1008 0a36 488D14C5 		leaq	0(,%rax,8), %rdx
 1008      00000000 
 1009 0a3e 488B45D8 		movq	-40(%rbp), %rax
 1010 0a42 488D0C02 		leaq	(%rdx,%rax), %rcx
 1011 0a46 8B45D0   		movl	-48(%rbp), %eax
 1012 0a49 4863D0   		movslq	%eax, %rdx
 1013 0a4c 4889D0   		movq	%rdx, %rax
 1014 0a4f 4801C0   		addq	%rax, %rax
 1015 0a52 4801D0   		addq	%rdx, %rax
 1016 0a55 48C1E002 		salq	$2, %rax
 1017 0a59 4889C2   		movq	%rax, %rdx
 1018 0a5c 488B45E0 		movq	-32(%rbp), %rax
 1019 0a60 4801D0   		addq	%rdx, %rax
 1020 0a63 8B00     		movl	(%rax), %eax
 1021 0a65 660FEFF6 		pxor	%xmm6, %xmm6
 1022 0a69 F30F2AF0 		cvtsi2ss	%eax, %xmm6
 1023 0a6d 660F7EF0 		movd	%xmm6, %eax
 1024 0a71 8901     		movl	%eax, (%rcx)
 180:./pdi/source/escrita.c ****                 cds[9 + i].Y = bolinhas[i].Y;
 1025              		.loc 1 180 0 discriminator 3
 1026 0a73 8B45D0   		movl	-48(%rbp), %eax
 1027 0a76 83C009   		addl	$9, %eax
 1028 0a79 4898     		cltq
 1029 0a7b 488D14C5 		leaq	0(,%rax,8), %rdx
 1029      00000000 
 1030 0a83 488B45D8 		movq	-40(%rbp), %rax
 1031 0a87 488D0C02 		leaq	(%rdx,%rax), %rcx
 1032 0a8b 8B45D0   		movl	-48(%rbp), %eax
 1033 0a8e 4863D0   		movslq	%eax, %rdx
 1034 0a91 4889D0   		movq	%rdx, %rax
 1035 0a94 4801C0   		addq	%rax, %rax
 1036 0a97 4801D0   		addq	%rdx, %rax
 1037 0a9a 48C1E002 		salq	$2, %rax
 1038 0a9e 4889C2   		movq	%rax, %rdx
 1039 0aa1 488B45E0 		movq	-32(%rbp), %rax
 1040 0aa5 4801D0   		addq	%rdx, %rax
 1041 0aa8 8B4004   		movl	4(%rax), %eax
 1042 0aab 660FEFFF 		pxor	%xmm7, %xmm7
 1043 0aaf F30F2AF8 		cvtsi2ss	%eax, %xmm7
GAS LISTING /tmp/ccmGtSBt.s 			page 25


 1044 0ab3 660F7EF8 		movd	%xmm7, %eax
 1045 0ab7 894104   		movl	%eax, 4(%rcx)
 178:./pdi/source/escrita.c ****                 cds[9 + i].X = bolinhas[i].X;
 1046              		.loc 1 178 0 discriminator 3
 1047 0aba 8345D001 		addl	$1, -48(%rbp)
 1048              	.L46:
 178:./pdi/source/escrita.c ****                 cds[9 + i].X = bolinhas[i].X;
 1049              		.loc 1 178 0 is_stmt 0 discriminator 1
 1050 0abe 837DD009 		cmpl	$9, -48(%rbp)
 1051 0ac2 0F8E66FF 		jle	.L47
 1051      FFFF
 181:./pdi/source/escrita.c ****         }
 182:./pdi/source/escrita.c **** /*
 183:./pdi/source/escrita.c ****         printf("Camera\n");
 184:./pdi/source/escrita.c ****         for (i = 0; i < 19; i++) {
 185:./pdi/source/escrita.c ****                 printf("%d %f %f\n", i, cds[i].X, cds[i].Y);
 186:./pdi/source/escrita.c ****         }
 187:./pdi/source/escrita.c **** */
 188:./pdi/source/escrita.c **** 	
 189:./pdi/source/escrita.c **** 	for (i = 0; i < altura; i++)
 1052              		.loc 1 189 0 is_stmt 1
 1053 0ac8 C745D000 		movl	$0, -48(%rbp)
 1053      000000
 1054 0acf EB23     		jmp	.L48
 1055              	.L49:
 190:./pdi/source/escrita.c **** 		free(matriz[i]);
 1056              		.loc 1 190 0 discriminator 3
 1057 0ad1 8B45D0   		movl	-48(%rbp), %eax
 1058 0ad4 4898     		cltq
 1059 0ad6 488D14C5 		leaq	0(,%rax,8), %rdx
 1059      00000000 
 1060 0ade 488B45C8 		movq	-56(%rbp), %rax
 1061 0ae2 4801D0   		addq	%rdx, %rax
 1062 0ae5 488B00   		movq	(%rax), %rax
 1063 0ae8 4889C7   		movq	%rax, %rdi
 1064 0aeb E8000000 		call	free
 1064      00
 189:./pdi/source/escrita.c **** 		free(matriz[i]);
 1065              		.loc 1 189 0 discriminator 3
 1066 0af0 8345D001 		addl	$1, -48(%rbp)
 1067              	.L48:
 189:./pdi/source/escrita.c **** 		free(matriz[i]);
 1068              		.loc 1 189 0 is_stmt 0 discriminator 1
 1069 0af4 817DD0DF 		cmpl	$479, -48(%rbp)
 1069      010000
 1070 0afb 7ED4     		jle	.L49
 191:./pdi/source/escrita.c **** 	free(matriz);
 1071              		.loc 1 191 0 is_stmt 1
 1072 0afd 488B45C8 		movq	-56(%rbp), %rax
 1073 0b01 4889C7   		movq	%rax, %rdi
 1074 0b04 E8000000 		call	free
 1074      00
 192:./pdi/source/escrita.c **** 
 193:./pdi/source/escrita.c ****         free(bolinhas);
 1075              		.loc 1 193 0
 1076 0b09 488B45E0 		movq	-32(%rbp), %rax
 1077 0b0d 4889C7   		movq	%rax, %rdi
GAS LISTING /tmp/ccmGtSBt.s 			page 26


 1078 0b10 E8000000 		call	free
 1078      00
 194:./pdi/source/escrita.c ****         free(hashtag);
 1079              		.loc 1 194 0
 1080 0b15 488B45E8 		movq	-24(%rbp), %rax
 1081 0b19 4889C7   		movq	%rax, %rdi
 1082 0b1c E8000000 		call	free
 1082      00
 195:./pdi/source/escrita.c **** 	return cds;
 1083              		.loc 1 195 0
 1084 0b21 488B45D8 		movq	-40(%rbp), %rax
 196:./pdi/source/escrita.c **** 
 197:./pdi/source/escrita.c **** }
 1085              		.loc 1 197 0
 1086 0b25 C9       		leave
 1087              		.cfi_def_cfa 7, 8
 1088 0b26 C3       		ret
 1089              		.cfi_endproc
 1090              	.LFE10:
 1091              		.size	print_ballcoord, .-print_ballcoord
 1092              	.Letext0:
 1093              		.file 2 "./pdi/source/../headers/pixel.h"
 1094              		.file 3 "./pdi/source/../headers/regiao.h"
 1095              		.file 4 "./pdi/source/../headers/cabecalho.h"
 1096              		.section	.debug_info,"",@progbits
 1097              	.Ldebug_info0:
 1098 0000 79050000 		.long	0x579
 1099 0004 0400     		.value	0x4
 1100 0006 00000000 		.long	.Ldebug_abbrev0
 1101 000a 08       		.byte	0x8
 1102 000b 01       		.uleb128 0x1
 1103 000c 00000000 		.long	.LASF65
 1104 0010 01       		.byte	0x1
 1105 0011 00000000 		.long	.LASF66
 1106 0015 00000000 		.long	.LASF67
 1107 0019 00000000 		.quad	.Ltext0
 1107      00000000 
 1108 0021 270B0000 		.quad	.Letext0-.Ltext0
 1108      00000000 
 1109 0029 00000000 		.long	.Ldebug_line0
 1110 002d 02       		.uleb128 0x2
 1111 002e 08       		.byte	0x8
 1112 002f 07       		.byte	0x7
 1113 0030 00000000 		.long	.LASF0
 1114 0034 02       		.uleb128 0x2
 1115 0035 01       		.byte	0x1
 1116 0036 08       		.byte	0x8
 1117 0037 00000000 		.long	.LASF1
 1118 003b 02       		.uleb128 0x2
 1119 003c 02       		.byte	0x2
 1120 003d 07       		.byte	0x7
 1121 003e 00000000 		.long	.LASF2
 1122 0042 02       		.uleb128 0x2
 1123 0043 04       		.byte	0x4
 1124 0044 07       		.byte	0x7
 1125 0045 00000000 		.long	.LASF3
 1126 0049 02       		.uleb128 0x2
GAS LISTING /tmp/ccmGtSBt.s 			page 27


 1127 004a 01       		.byte	0x1
 1128 004b 06       		.byte	0x6
 1129 004c 00000000 		.long	.LASF4
 1130 0050 02       		.uleb128 0x2
 1131 0051 02       		.byte	0x2
 1132 0052 05       		.byte	0x5
 1133 0053 00000000 		.long	.LASF5
 1134 0057 03       		.uleb128 0x3
 1135 0058 04       		.byte	0x4
 1136 0059 05       		.byte	0x5
 1137 005a 696E7400 		.string	"int"
 1138 005e 02       		.uleb128 0x2
 1139 005f 08       		.byte	0x8
 1140 0060 05       		.byte	0x5
 1141 0061 00000000 		.long	.LASF6
 1142 0065 02       		.uleb128 0x2
 1143 0066 08       		.byte	0x8
 1144 0067 07       		.byte	0x7
 1145 0068 00000000 		.long	.LASF7
 1146 006c 04       		.uleb128 0x4
 1147 006d 08       		.byte	0x8
 1148 006e 72000000 		.long	0x72
 1149 0072 02       		.uleb128 0x2
 1150 0073 01       		.byte	0x1
 1151 0074 06       		.byte	0x6
 1152 0075 00000000 		.long	.LASF8
 1153 0079 02       		.uleb128 0x2
 1154 007a 08       		.byte	0x8
 1155 007b 05       		.byte	0x5
 1156 007c 00000000 		.long	.LASF9
 1157 0080 02       		.uleb128 0x2
 1158 0081 08       		.byte	0x8
 1159 0082 07       		.byte	0x7
 1160 0083 00000000 		.long	.LASF10
 1161 0087 05       		.uleb128 0x5
 1162 0088 00000000 		.long	.LASF18
 1163 008c 09       		.byte	0x9
 1164 008d 02       		.byte	0x2
 1165 008e 05       		.byte	0x5
 1166 008f FE000000 		.long	0xfe
 1167 0093 06       		.uleb128 0x6
 1168 0094 00000000 		.long	.LASF11
 1169 0098 02       		.byte	0x2
 1170 0099 06       		.byte	0x6
 1171 009a 34000000 		.long	0x34
 1172 009e 00       		.byte	0
 1173 009f 07       		.uleb128 0x7
 1174 00a0 636200   		.string	"cb"
 1175 00a3 02       		.byte	0x2
 1176 00a4 06       		.byte	0x6
 1177 00a5 34000000 		.long	0x34
 1178 00a9 01       		.byte	0x1
 1179 00aa 07       		.uleb128 0x7
 1180 00ab 637200   		.string	"cr"
 1181 00ae 02       		.byte	0x2
 1182 00af 06       		.byte	0x6
 1183 00b0 34000000 		.long	0x34
GAS LISTING /tmp/ccmGtSBt.s 			page 28


 1184 00b4 02       		.byte	0x2
 1185 00b5 06       		.uleb128 0x6
 1186 00b6 00000000 		.long	.LASF12
 1187 00ba 02       		.byte	0x2
 1188 00bb 07       		.byte	0x7
 1189 00bc 34000000 		.long	0x34
 1190 00c0 03       		.byte	0x3
 1191 00c1 06       		.uleb128 0x6
 1192 00c2 00000000 		.long	.LASF13
 1193 00c6 02       		.byte	0x2
 1194 00c7 07       		.byte	0x7
 1195 00c8 34000000 		.long	0x34
 1196 00cc 04       		.byte	0x4
 1197 00cd 06       		.uleb128 0x6
 1198 00ce 00000000 		.long	.LASF14
 1199 00d2 02       		.byte	0x2
 1200 00d3 07       		.byte	0x7
 1201 00d4 34000000 		.long	0x34
 1202 00d8 05       		.byte	0x5
 1203 00d9 06       		.uleb128 0x6
 1204 00da 00000000 		.long	.LASF15
 1205 00de 02       		.byte	0x2
 1206 00df 07       		.byte	0x7
 1207 00e0 34000000 		.long	0x34
 1208 00e4 06       		.byte	0x6
 1209 00e5 06       		.uleb128 0x6
 1210 00e6 00000000 		.long	.LASF16
 1211 00ea 02       		.byte	0x2
 1212 00eb 07       		.byte	0x7
 1213 00ec 34000000 		.long	0x34
 1214 00f0 07       		.byte	0x7
 1215 00f1 06       		.uleb128 0x6
 1216 00f2 00000000 		.long	.LASF17
 1217 00f6 02       		.byte	0x2
 1218 00f7 07       		.byte	0x7
 1219 00f8 34000000 		.long	0x34
 1220 00fc 08       		.byte	0x8
 1221 00fd 00       		.byte	0
 1222 00fe 05       		.uleb128 0x5
 1223 00ff 00000000 		.long	.LASF19
 1224 0103 0C       		.byte	0xc
 1225 0104 02       		.byte	0x2
 1226 0105 1B       		.byte	0x1b
 1227 0106 9B010000 		.long	0x19b
 1228 010a 06       		.uleb128 0x6
 1229 010b 00000000 		.long	.LASF20
 1230 010f 02       		.byte	0x2
 1231 0110 1C       		.byte	0x1c
 1232 0111 34000000 		.long	0x34
 1233 0115 00       		.byte	0
 1234 0116 06       		.uleb128 0x6
 1235 0117 00000000 		.long	.LASF21
 1236 011b 02       		.byte	0x2
 1237 011c 1C       		.byte	0x1c
 1238 011d 34000000 		.long	0x34
 1239 0121 01       		.byte	0x1
 1240 0122 06       		.uleb128 0x6
GAS LISTING /tmp/ccmGtSBt.s 			page 29


 1241 0123 00000000 		.long	.LASF22
 1242 0127 02       		.byte	0x2
 1243 0128 1C       		.byte	0x1c
 1244 0129 34000000 		.long	0x34
 1245 012d 02       		.byte	0x2
 1246 012e 06       		.uleb128 0x6
 1247 012f 00000000 		.long	.LASF23
 1248 0133 02       		.byte	0x2
 1249 0134 1C       		.byte	0x1c
 1250 0135 34000000 		.long	0x34
 1251 0139 03       		.byte	0x3
 1252 013a 06       		.uleb128 0x6
 1253 013b 00000000 		.long	.LASF24
 1254 013f 02       		.byte	0x2
 1255 0140 1D       		.byte	0x1d
 1256 0141 34000000 		.long	0x34
 1257 0145 04       		.byte	0x4
 1258 0146 06       		.uleb128 0x6
 1259 0147 00000000 		.long	.LASF25
 1260 014b 02       		.byte	0x2
 1261 014c 1D       		.byte	0x1d
 1262 014d 34000000 		.long	0x34
 1263 0151 05       		.byte	0x5
 1264 0152 06       		.uleb128 0x6
 1265 0153 00000000 		.long	.LASF26
 1266 0157 02       		.byte	0x2
 1267 0158 1D       		.byte	0x1d
 1268 0159 34000000 		.long	0x34
 1269 015d 06       		.byte	0x6
 1270 015e 06       		.uleb128 0x6
 1271 015f 00000000 		.long	.LASF27
 1272 0163 02       		.byte	0x2
 1273 0164 1D       		.byte	0x1d
 1274 0165 34000000 		.long	0x34
 1275 0169 07       		.byte	0x7
 1276 016a 06       		.uleb128 0x6
 1277 016b 00000000 		.long	.LASF28
 1278 016f 02       		.byte	0x2
 1279 0170 1E       		.byte	0x1e
 1280 0171 34000000 		.long	0x34
 1281 0175 08       		.byte	0x8
 1282 0176 06       		.uleb128 0x6
 1283 0177 00000000 		.long	.LASF29
 1284 017b 02       		.byte	0x2
 1285 017c 1E       		.byte	0x1e
 1286 017d 34000000 		.long	0x34
 1287 0181 09       		.byte	0x9
 1288 0182 06       		.uleb128 0x6
 1289 0183 00000000 		.long	.LASF30
 1290 0187 02       		.byte	0x2
 1291 0188 1E       		.byte	0x1e
 1292 0189 34000000 		.long	0x34
 1293 018d 0A       		.byte	0xa
 1294 018e 06       		.uleb128 0x6
 1295 018f 00000000 		.long	.LASF31
 1296 0193 02       		.byte	0x2
 1297 0194 1E       		.byte	0x1e
GAS LISTING /tmp/ccmGtSBt.s 			page 30


 1298 0195 34000000 		.long	0x34
 1299 0199 0B       		.byte	0xb
 1300 019a 00       		.byte	0
 1301 019b 02       		.uleb128 0x2
 1302 019c 04       		.byte	0x4
 1303 019d 04       		.byte	0x4
 1304 019e 00000000 		.long	.LASF32
 1305 01a2 02       		.uleb128 0x2
 1306 01a3 08       		.byte	0x8
 1307 01a4 04       		.byte	0x4
 1308 01a5 00000000 		.long	.LASF33
 1309 01a9 05       		.uleb128 0x5
 1310 01aa 00000000 		.long	.LASF34
 1311 01ae 0C       		.byte	0xc
 1312 01af 03       		.byte	0x3
 1313 01b0 05       		.byte	0x5
 1314 01b1 D6010000 		.long	0x1d6
 1315 01b5 07       		.uleb128 0x7
 1316 01b6 5800     		.string	"X"
 1317 01b8 03       		.byte	0x3
 1318 01b9 06       		.byte	0x6
 1319 01ba 57000000 		.long	0x57
 1320 01be 00       		.byte	0
 1321 01bf 07       		.uleb128 0x7
 1322 01c0 5900     		.string	"Y"
 1323 01c2 03       		.byte	0x3
 1324 01c3 06       		.byte	0x6
 1325 01c4 57000000 		.long	0x57
 1326 01c8 04       		.byte	0x4
 1327 01c9 06       		.uleb128 0x6
 1328 01ca 00000000 		.long	.LASF35
 1329 01ce 03       		.byte	0x3
 1330 01cf 06       		.byte	0x6
 1331 01d0 57000000 		.long	0x57
 1332 01d4 08       		.byte	0x8
 1333 01d5 00       		.byte	0
 1334 01d6 05       		.uleb128 0x5
 1335 01d7 00000000 		.long	.LASF36
 1336 01db 10       		.byte	0x10
 1337 01dc 03       		.byte	0x3
 1338 01dd 0B       		.byte	0xb
 1339 01de FB010000 		.long	0x1fb
 1340 01e2 06       		.uleb128 0x6
 1341 01e3 00000000 		.long	.LASF37
 1342 01e7 03       		.byte	0x3
 1343 01e8 0C       		.byte	0xc
 1344 01e9 FB010000 		.long	0x1fb
 1345 01ed 00       		.byte	0
 1346 01ee 06       		.uleb128 0x6
 1347 01ef 00000000 		.long	.LASF38
 1348 01f3 03       		.byte	0x3
 1349 01f4 0D       		.byte	0xd
 1350 01f5 57000000 		.long	0x57
 1351 01f9 08       		.byte	0x8
 1352 01fa 00       		.byte	0
 1353 01fb 04       		.uleb128 0x4
 1354 01fc 08       		.byte	0x8
GAS LISTING /tmp/ccmGtSBt.s 			page 31


 1355 01fd A9010000 		.long	0x1a9
 1356 0201 08       		.uleb128 0x8
 1357 0202 434400   		.string	"CD"
 1358 0205 08       		.byte	0x8
 1359 0206 04       		.byte	0x4
 1360 0207 16       		.byte	0x16
 1361 0208 21020000 		.long	0x221
 1362 020c 07       		.uleb128 0x7
 1363 020d 5800     		.string	"X"
 1364 020f 04       		.byte	0x4
 1365 0210 17       		.byte	0x17
 1366 0211 9B010000 		.long	0x19b
 1367 0215 00       		.byte	0
 1368 0216 07       		.uleb128 0x7
 1369 0217 5900     		.string	"Y"
 1370 0219 04       		.byte	0x4
 1371 021a 17       		.byte	0x17
 1372 021b 9B010000 		.long	0x19b
 1373 021f 04       		.byte	0x4
 1374 0220 00       		.byte	0
 1375 0221 09       		.uleb128 0x9
 1376 0222 00000000 		.long	.LASF43
 1377 0226 01       		.byte	0x1
 1378 0227 03       		.byte	0x3
 1379 0228 00000000 		.quad	.LFB2
 1379      00000000 
 1380 0230 95000000 		.quad	.LFE2-.LFB2
 1380      00000000 
 1381 0238 01       		.uleb128 0x1
 1382 0239 9C       		.byte	0x9c
 1383 023a 85020000 		.long	0x285
 1384 023e 0A       		.uleb128 0xa
 1385 023f 00000000 		.long	.LASF39
 1386 0243 01       		.byte	0x1
 1387 0244 03       		.byte	0x3
 1388 0245 85020000 		.long	0x285
 1389 0249 02       		.uleb128 0x2
 1390 024a 91       		.byte	0x91
 1391 024b 58       		.sleb128 -40
 1392 024c 0A       		.uleb128 0xa
 1393 024d 00000000 		.long	.LASF40
 1394 0251 01       		.byte	0x1
 1395 0252 03       		.byte	0x3
 1396 0253 91020000 		.long	0x291
 1397 0257 02       		.uleb128 0x2
 1398 0258 91       		.byte	0x91
 1399 0259 50       		.sleb128 -48
 1400 025a 0A       		.uleb128 0xa
 1401 025b 00000000 		.long	.LASF41
 1402 025f 01       		.byte	0x1
 1403 0260 03       		.byte	0x3
 1404 0261 97020000 		.long	0x297
 1405 0265 02       		.uleb128 0x2
 1406 0266 91       		.byte	0x91
 1407 0267 48       		.sleb128 -56
 1408 0268 0A       		.uleb128 0xa
 1409 0269 00000000 		.long	.LASF42
GAS LISTING /tmp/ccmGtSBt.s 			page 32


 1410 026d 01       		.byte	0x1
 1411 026e 03       		.byte	0x3
 1412 026f 6C000000 		.long	0x6c
 1413 0273 02       		.uleb128 0x2
 1414 0274 91       		.byte	0x91
 1415 0275 40       		.sleb128 -64
 1416 0276 0B       		.uleb128 0xb
 1417 0277 00000000 		.long	.LASF44
 1418 027b 01       		.byte	0x1
 1419 027c 05       		.byte	0x5
 1420 027d 91020000 		.long	0x291
 1421 0281 02       		.uleb128 0x2
 1422 0282 91       		.byte	0x91
 1423 0283 68       		.sleb128 -24
 1424 0284 00       		.byte	0
 1425 0285 04       		.uleb128 0x4
 1426 0286 08       		.byte	0x8
 1427 0287 8B020000 		.long	0x28b
 1428 028b 04       		.uleb128 0x4
 1429 028c 08       		.byte	0x8
 1430 028d 87000000 		.long	0x87
 1431 0291 04       		.uleb128 0x4
 1432 0292 08       		.byte	0x8
 1433 0293 34000000 		.long	0x34
 1434 0297 04       		.uleb128 0x4
 1435 0298 08       		.byte	0x8
 1436 0299 FE000000 		.long	0xfe
 1437 029d 0C       		.uleb128 0xc
 1438 029e 414900   		.string	"AI"
 1439 02a1 01       		.byte	0x1
 1440 02a2 2D       		.byte	0x2d
 1441 02a3 00000000 		.quad	.LFB3
 1441      00000000 
 1442 02ab 51000000 		.quad	.LFE3-.LFB3
 1442      00000000 
 1443 02b3 01       		.uleb128 0x1
 1444 02b4 9C       		.byte	0x9c
 1445 02b5 E4020000 		.long	0x2e4
 1446 02b9 0A       		.uleb128 0xa
 1447 02ba 00000000 		.long	.LASF39
 1448 02be 01       		.byte	0x1
 1449 02bf 2D       		.byte	0x2d
 1450 02c0 85020000 		.long	0x285
 1451 02c4 02       		.uleb128 0x2
 1452 02c5 91       		.byte	0x91
 1453 02c6 48       		.sleb128 -56
 1454 02c7 0B       		.uleb128 0xb
 1455 02c8 00000000 		.long	.LASF45
 1456 02cc 01       		.byte	0x1
 1457 02cd 30       		.byte	0x30
 1458 02ce 87000000 		.long	0x87
 1459 02d2 02       		.uleb128 0x2
 1460 02d3 91       		.byte	0x91
 1461 02d4 50       		.sleb128 -48
 1462 02d5 0B       		.uleb128 0xb
 1463 02d6 00000000 		.long	.LASF46
 1464 02da 01       		.byte	0x1
GAS LISTING /tmp/ccmGtSBt.s 			page 33


 1465 02db 34       		.byte	0x34
 1466 02dc 87000000 		.long	0x87
 1467 02e0 02       		.uleb128 0x2
 1468 02e1 91       		.byte	0x91
 1469 02e2 60       		.sleb128 -32
 1470 02e3 00       		.byte	0
 1471 02e4 09       		.uleb128 0x9
 1472 02e5 00000000 		.long	.LASF47
 1473 02e9 01       		.byte	0x1
 1474 02ea 3D       		.byte	0x3d
 1475 02eb 00000000 		.quad	.LFB4
 1475      00000000 
 1476 02f3 A5030000 		.quad	.LFE4-.LFB4
 1476      00000000 
 1477 02fb 01       		.uleb128 0x1
 1478 02fc 9C       		.byte	0x9c
 1479 02fd 54030000 		.long	0x354
 1480 0301 0A       		.uleb128 0xa
 1481 0302 00000000 		.long	.LASF39
 1482 0306 01       		.byte	0x1
 1483 0307 3D       		.byte	0x3d
 1484 0308 85020000 		.long	0x285
 1485 030c 02       		.uleb128 0x2
 1486 030d 91       		.byte	0x91
 1487 030e 48       		.sleb128 -56
 1488 030f 0A       		.uleb128 0xa
 1489 0310 00000000 		.long	.LASF48
 1490 0314 01       		.byte	0x1
 1491 0315 3D       		.byte	0x3d
 1492 0316 87000000 		.long	0x87
 1493 031a 03       		.uleb128 0x3
 1494 031b 91       		.byte	0x91
 1495 031c B87F     		.sleb128 -72
 1496 031e 0A       		.uleb128 0xa
 1497 031f 00000000 		.long	.LASF49
 1498 0323 01       		.byte	0x1
 1499 0324 3D       		.byte	0x3d
 1500 0325 87000000 		.long	0x87
 1501 0329 03       		.uleb128 0x3
 1502 032a 91       		.byte	0x91
 1503 032b A87F     		.sleb128 -88
 1504 032d 0D       		.uleb128 0xd
 1505 032e 746D7000 		.string	"tmp"
 1506 0332 01       		.byte	0x1
 1507 0333 3F       		.byte	0x3f
 1508 0334 87000000 		.long	0x87
 1509 0338 02       		.uleb128 0x2
 1510 0339 91       		.byte	0x91
 1511 033a 60       		.sleb128 -32
 1512 033b 0D       		.uleb128 0xd
 1513 033c 6900     		.string	"i"
 1514 033e 01       		.byte	0x1
 1515 033f 40       		.byte	0x40
 1516 0340 57000000 		.long	0x57
 1517 0344 02       		.uleb128 0x2
 1518 0345 91       		.byte	0x91
 1519 0346 58       		.sleb128 -40
GAS LISTING /tmp/ccmGtSBt.s 			page 34


 1520 0347 0D       		.uleb128 0xd
 1521 0348 6A00     		.string	"j"
 1522 034a 01       		.byte	0x1
 1523 034b 40       		.byte	0x40
 1524 034c 57000000 		.long	0x57
 1525 0350 02       		.uleb128 0x2
 1526 0351 91       		.byte	0x91
 1527 0352 5C       		.sleb128 -36
 1528 0353 00       		.byte	0
 1529 0354 0E       		.uleb128 0xe
 1530 0355 00000000 		.long	.LASF50
 1531 0359 01       		.byte	0x1
 1532 035a 5D       		.byte	0x5d
 1533 035b 00000000 		.quad	.LFB5
 1533      00000000 
 1534 0363 22010000 		.quad	.LFE5-.LFB5
 1534      00000000 
 1535 036b 01       		.uleb128 0x1
 1536 036c 9C       		.byte	0x9c
 1537 036d B0030000 		.long	0x3b0
 1538 0371 0A       		.uleb128 0xa
 1539 0372 00000000 		.long	.LASF39
 1540 0376 01       		.byte	0x1
 1541 0377 5D       		.byte	0x5d
 1542 0378 85020000 		.long	0x285
 1543 037c 02       		.uleb128 0x2
 1544 037d 91       		.byte	0x91
 1545 037e 58       		.sleb128 -40
 1546 037f 0D       		.uleb128 0xd
 1547 0380 6900     		.string	"i"
 1548 0382 01       		.byte	0x1
 1549 0383 5E       		.byte	0x5e
 1550 0384 57000000 		.long	0x57
 1551 0388 02       		.uleb128 0x2
 1552 0389 91       		.byte	0x91
 1553 038a 60       		.sleb128 -32
 1554 038b 0D       		.uleb128 0xd
 1555 038c 6A00     		.string	"j"
 1556 038e 01       		.byte	0x1
 1557 038f 5E       		.byte	0x5e
 1558 0390 57000000 		.long	0x57
 1559 0394 02       		.uleb128 0x2
 1560 0395 91       		.byte	0x91
 1561 0396 64       		.sleb128 -28
 1562 0397 0D       		.uleb128 0xd
 1563 0398 7800     		.string	"x"
 1564 039a 01       		.byte	0x1
 1565 039b 5E       		.byte	0x5e
 1566 039c 57000000 		.long	0x57
 1567 03a0 02       		.uleb128 0x2
 1568 03a1 91       		.byte	0x91
 1569 03a2 68       		.sleb128 -24
 1570 03a3 0D       		.uleb128 0xd
 1571 03a4 7900     		.string	"y"
 1572 03a6 01       		.byte	0x1
 1573 03a7 5E       		.byte	0x5e
 1574 03a8 57000000 		.long	0x57
GAS LISTING /tmp/ccmGtSBt.s 			page 35


 1575 03ac 02       		.uleb128 0x2
 1576 03ad 91       		.byte	0x91
 1577 03ae 6C       		.sleb128 -20
 1578 03af 00       		.byte	0
 1579 03b0 0E       		.uleb128 0xe
 1580 03b1 00000000 		.long	.LASF51
 1581 03b5 01       		.byte	0x1
 1582 03b6 6F       		.byte	0x6f
 1583 03b7 00000000 		.quad	.LFB6
 1583      00000000 
 1584 03bf A1000000 		.quad	.LFE6-.LFB6
 1584      00000000 
 1585 03c7 01       		.uleb128 0x1
 1586 03c8 9C       		.byte	0x9c
 1587 03c9 02040000 		.long	0x402
 1588 03cd 0A       		.uleb128 0xa
 1589 03ce 00000000 		.long	.LASF39
 1590 03d2 01       		.byte	0x1
 1591 03d3 6F       		.byte	0x6f
 1592 03d4 85020000 		.long	0x285
 1593 03d8 02       		.uleb128 0x2
 1594 03d9 91       		.byte	0x91
 1595 03da 58       		.sleb128 -40
 1596 03db 0A       		.uleb128 0xa
 1597 03dc 00000000 		.long	.LASF52
 1598 03e0 01       		.byte	0x1
 1599 03e1 6F       		.byte	0x6f
 1600 03e2 57000000 		.long	0x57
 1601 03e6 02       		.uleb128 0x2
 1602 03e7 91       		.byte	0x91
 1603 03e8 54       		.sleb128 -44
 1604 03e9 0D       		.uleb128 0xd
 1605 03ea 6900     		.string	"i"
 1606 03ec 01       		.byte	0x1
 1607 03ed 71       		.byte	0x71
 1608 03ee 57000000 		.long	0x57
 1609 03f2 02       		.uleb128 0x2
 1610 03f3 91       		.byte	0x91
 1611 03f4 68       		.sleb128 -24
 1612 03f5 0D       		.uleb128 0xd
 1613 03f6 6A00     		.string	"j"
 1614 03f8 01       		.byte	0x1
 1615 03f9 71       		.byte	0x71
 1616 03fa 57000000 		.long	0x57
 1617 03fe 02       		.uleb128 0x2
 1618 03ff 91       		.byte	0x91
 1619 0400 6C       		.sleb128 -20
 1620 0401 00       		.byte	0
 1621 0402 0E       		.uleb128 0xe
 1622 0403 00000000 		.long	.LASF53
 1623 0407 01       		.byte	0x1
 1624 0408 7B       		.byte	0x7b
 1625 0409 00000000 		.quad	.LFB7
 1625      00000000 
 1626 0411 A1000000 		.quad	.LFE7-.LFB7
 1626      00000000 
 1627 0419 01       		.uleb128 0x1
GAS LISTING /tmp/ccmGtSBt.s 			page 36


 1628 041a 9C       		.byte	0x9c
 1629 041b 54040000 		.long	0x454
 1630 041f 0A       		.uleb128 0xa
 1631 0420 00000000 		.long	.LASF39
 1632 0424 01       		.byte	0x1
 1633 0425 7B       		.byte	0x7b
 1634 0426 85020000 		.long	0x285
 1635 042a 02       		.uleb128 0x2
 1636 042b 91       		.byte	0x91
 1637 042c 58       		.sleb128 -40
 1638 042d 0A       		.uleb128 0xa
 1639 042e 00000000 		.long	.LASF52
 1640 0432 01       		.byte	0x1
 1641 0433 7B       		.byte	0x7b
 1642 0434 57000000 		.long	0x57
 1643 0438 02       		.uleb128 0x2
 1644 0439 91       		.byte	0x91
 1645 043a 54       		.sleb128 -44
 1646 043b 0D       		.uleb128 0xd
 1647 043c 6900     		.string	"i"
 1648 043e 01       		.byte	0x1
 1649 043f 7D       		.byte	0x7d
 1650 0440 57000000 		.long	0x57
 1651 0444 02       		.uleb128 0x2
 1652 0445 91       		.byte	0x91
 1653 0446 68       		.sleb128 -24
 1654 0447 0D       		.uleb128 0xd
 1655 0448 6A00     		.string	"j"
 1656 044a 01       		.byte	0x1
 1657 044b 7D       		.byte	0x7d
 1658 044c 57000000 		.long	0x57
 1659 0450 02       		.uleb128 0x2
 1660 0451 91       		.byte	0x91
 1661 0452 6C       		.sleb128 -20
 1662 0453 00       		.byte	0
 1663 0454 0F       		.uleb128 0xf
 1664 0455 00000000 		.long	.LASF60
 1665 0459 01       		.byte	0x1
 1666 045a 87       		.byte	0x87
 1667 045b 57000000 		.long	0x57
 1668 045f 00000000 		.quad	.LFB8
 1668      00000000 
 1669 0467 74000000 		.quad	.LFE8-.LFB8
 1669      00000000 
 1670 046f 01       		.uleb128 0x1
 1671 0470 9C       		.byte	0x9c
 1672 0471 A0040000 		.long	0x4a0
 1673 0475 0A       		.uleb128 0xa
 1674 0476 00000000 		.long	.LASF54
 1675 047a 01       		.byte	0x1
 1676 047b 87       		.byte	0x87
 1677 047c 87000000 		.long	0x87
 1678 0480 02       		.uleb128 0x2
 1679 0481 91       		.byte	0x91
 1680 0482 50       		.sleb128 -48
 1681 0483 0A       		.uleb128 0xa
 1682 0484 00000000 		.long	.LASF55
GAS LISTING /tmp/ccmGtSBt.s 			page 37


 1683 0488 01       		.byte	0x1
 1684 0489 87       		.byte	0x87
 1685 048a 87000000 		.long	0x87
 1686 048e 02       		.uleb128 0x2
 1687 048f 91       		.byte	0x91
 1688 0490 40       		.sleb128 -64
 1689 0491 0B       		.uleb128 0xb
 1690 0492 00000000 		.long	.LASF56
 1691 0496 01       		.byte	0x1
 1692 0497 88       		.byte	0x88
 1693 0498 57000000 		.long	0x57
 1694 049c 02       		.uleb128 0x2
 1695 049d 91       		.byte	0x91
 1696 049e 6C       		.sleb128 -20
 1697 049f 00       		.byte	0
 1698 04a0 09       		.uleb128 0x9
 1699 04a1 00000000 		.long	.LASF57
 1700 04a5 01       		.byte	0x1
 1701 04a6 91       		.byte	0x91
 1702 04a7 00000000 		.quad	.LFB9
 1702      00000000 
 1703 04af 74000000 		.quad	.LFE9-.LFB9
 1703      00000000 
 1704 04b7 01       		.uleb128 0x1
 1705 04b8 9C       		.byte	0x9c
 1706 04b9 E8040000 		.long	0x4e8
 1707 04bd 0A       		.uleb128 0xa
 1708 04be 00000000 		.long	.LASF42
 1709 04c2 01       		.byte	0x1
 1710 04c3 91       		.byte	0x91
 1711 04c4 6C000000 		.long	0x6c
 1712 04c8 02       		.uleb128 0x2
 1713 04c9 91       		.byte	0x91
 1714 04ca 58       		.sleb128 -40
 1715 04cb 0A       		.uleb128 0xa
 1716 04cc 00000000 		.long	.LASF58
 1717 04d0 01       		.byte	0x1
 1718 04d1 91       		.byte	0x91
 1719 04d2 91020000 		.long	0x291
 1720 04d6 02       		.uleb128 0x2
 1721 04d7 91       		.byte	0x91
 1722 04d8 50       		.sleb128 -48
 1723 04d9 0B       		.uleb128 0xb
 1724 04da 00000000 		.long	.LASF59
 1725 04de 01       		.byte	0x1
 1726 04df 92       		.byte	0x92
 1727 04e0 57000000 		.long	0x57
 1728 04e4 02       		.uleb128 0x2
 1729 04e5 91       		.byte	0x91
 1730 04e6 6C       		.sleb128 -20
 1731 04e7 00       		.byte	0
 1732 04e8 10       		.uleb128 0x10
 1733 04e9 00000000 		.long	.LASF61
 1734 04ed 01       		.byte	0x1
 1735 04ee 9D       		.byte	0x9d
 1736 04ef 6B050000 		.long	0x56b
 1737 04f3 00000000 		.quad	.LFB10
GAS LISTING /tmp/ccmGtSBt.s 			page 38


 1737      00000000 
 1738 04fb 50030000 		.quad	.LFE10-.LFB10
 1738      00000000 
 1739 0503 01       		.uleb128 0x1
 1740 0504 9C       		.byte	0x9c
 1741 0505 6B050000 		.long	0x56b
 1742 0509 0A       		.uleb128 0xa
 1743 050a 00000000 		.long	.LASF39
 1744 050e 01       		.byte	0x1
 1745 050f 9D       		.byte	0x9d
 1746 0510 85020000 		.long	0x285
 1747 0514 03       		.uleb128 0x3
 1748 0515 91       		.byte	0x91
 1749 0516 B87F     		.sleb128 -72
 1750 0518 0D       		.uleb128 0xd
 1751 0519 63647300 		.string	"cds"
 1752 051d 01       		.byte	0x1
 1753 051e 9F       		.byte	0x9f
 1754 051f 6B050000 		.long	0x56b
 1755 0523 02       		.uleb128 0x2
 1756 0524 91       		.byte	0x91
 1757 0525 48       		.sleb128 -56
 1758 0526 0D       		.uleb128 0xd
 1759 0527 61757800 		.string	"aux"
 1760 052b 01       		.byte	0x1
 1761 052c A0       		.byte	0xa0
 1762 052d D6010000 		.long	0x1d6
 1763 0531 02       		.uleb128 0x2
 1764 0532 91       		.byte	0x91
 1765 0533 60       		.sleb128 -32
 1766 0534 0B       		.uleb128 0xb
 1767 0535 00000000 		.long	.LASF62
 1768 0539 01       		.byte	0x1
 1769 053a A1       		.byte	0xa1
 1770 053b FB010000 		.long	0x1fb
 1771 053f 02       		.uleb128 0x2
 1772 0540 91       		.byte	0x91
 1773 0541 50       		.sleb128 -48
 1774 0542 0B       		.uleb128 0xb
 1775 0543 00000000 		.long	.LASF63
 1776 0547 01       		.byte	0x1
 1777 0548 A3       		.byte	0xa3
 1778 0549 57000000 		.long	0x57
 1779 054d 02       		.uleb128 0x2
 1780 054e 91       		.byte	0x91
 1781 054f 44       		.sleb128 -60
 1782 0550 0B       		.uleb128 0xb
 1783 0551 00000000 		.long	.LASF64
 1784 0555 01       		.byte	0x1
 1785 0556 A4       		.byte	0xa4
 1786 0557 FB010000 		.long	0x1fb
 1787 055b 02       		.uleb128 0x2
 1788 055c 91       		.byte	0x91
 1789 055d 58       		.sleb128 -40
 1790 055e 0D       		.uleb128 0xd
 1791 055f 6900     		.string	"i"
 1792 0561 01       		.byte	0x1
GAS LISTING /tmp/ccmGtSBt.s 			page 39


 1793 0562 A5       		.byte	0xa5
 1794 0563 57000000 		.long	0x57
 1795 0567 02       		.uleb128 0x2
 1796 0568 91       		.byte	0x91
 1797 0569 40       		.sleb128 -64
 1798 056a 00       		.byte	0
 1799 056b 04       		.uleb128 0x4
 1800 056c 08       		.byte	0x8
 1801 056d 01020000 		.long	0x201
 1802 0571 11       		.uleb128 0x11
 1803 0572 00000000 		.long	.LASF68
 1804 0576 04       		.byte	0x4
 1805 0577 32       		.byte	0x32
 1806 0578 57000000 		.long	0x57
 1807 057c 00       		.byte	0
 1808              		.section	.debug_abbrev,"",@progbits
 1809              	.Ldebug_abbrev0:
 1810 0000 01       		.uleb128 0x1
 1811 0001 11       		.uleb128 0x11
 1812 0002 01       		.byte	0x1
 1813 0003 25       		.uleb128 0x25
 1814 0004 0E       		.uleb128 0xe
 1815 0005 13       		.uleb128 0x13
 1816 0006 0B       		.uleb128 0xb
 1817 0007 03       		.uleb128 0x3
 1818 0008 0E       		.uleb128 0xe
 1819 0009 1B       		.uleb128 0x1b
 1820 000a 0E       		.uleb128 0xe
 1821 000b 11       		.uleb128 0x11
 1822 000c 01       		.uleb128 0x1
 1823 000d 12       		.uleb128 0x12
 1824 000e 07       		.uleb128 0x7
 1825 000f 10       		.uleb128 0x10
 1826 0010 17       		.uleb128 0x17
 1827 0011 00       		.byte	0
 1828 0012 00       		.byte	0
 1829 0013 02       		.uleb128 0x2
 1830 0014 24       		.uleb128 0x24
 1831 0015 00       		.byte	0
 1832 0016 0B       		.uleb128 0xb
 1833 0017 0B       		.uleb128 0xb
 1834 0018 3E       		.uleb128 0x3e
 1835 0019 0B       		.uleb128 0xb
 1836 001a 03       		.uleb128 0x3
 1837 001b 0E       		.uleb128 0xe
 1838 001c 00       		.byte	0
 1839 001d 00       		.byte	0
 1840 001e 03       		.uleb128 0x3
 1841 001f 24       		.uleb128 0x24
 1842 0020 00       		.byte	0
 1843 0021 0B       		.uleb128 0xb
 1844 0022 0B       		.uleb128 0xb
 1845 0023 3E       		.uleb128 0x3e
 1846 0024 0B       		.uleb128 0xb
 1847 0025 03       		.uleb128 0x3
 1848 0026 08       		.uleb128 0x8
 1849 0027 00       		.byte	0
GAS LISTING /tmp/ccmGtSBt.s 			page 40


 1850 0028 00       		.byte	0
 1851 0029 04       		.uleb128 0x4
 1852 002a 0F       		.uleb128 0xf
 1853 002b 00       		.byte	0
 1854 002c 0B       		.uleb128 0xb
 1855 002d 0B       		.uleb128 0xb
 1856 002e 49       		.uleb128 0x49
 1857 002f 13       		.uleb128 0x13
 1858 0030 00       		.byte	0
 1859 0031 00       		.byte	0
 1860 0032 05       		.uleb128 0x5
 1861 0033 13       		.uleb128 0x13
 1862 0034 01       		.byte	0x1
 1863 0035 03       		.uleb128 0x3
 1864 0036 0E       		.uleb128 0xe
 1865 0037 0B       		.uleb128 0xb
 1866 0038 0B       		.uleb128 0xb
 1867 0039 3A       		.uleb128 0x3a
 1868 003a 0B       		.uleb128 0xb
 1869 003b 3B       		.uleb128 0x3b
 1870 003c 0B       		.uleb128 0xb
 1871 003d 01       		.uleb128 0x1
 1872 003e 13       		.uleb128 0x13
 1873 003f 00       		.byte	0
 1874 0040 00       		.byte	0
 1875 0041 06       		.uleb128 0x6
 1876 0042 0D       		.uleb128 0xd
 1877 0043 00       		.byte	0
 1878 0044 03       		.uleb128 0x3
 1879 0045 0E       		.uleb128 0xe
 1880 0046 3A       		.uleb128 0x3a
 1881 0047 0B       		.uleb128 0xb
 1882 0048 3B       		.uleb128 0x3b
 1883 0049 0B       		.uleb128 0xb
 1884 004a 49       		.uleb128 0x49
 1885 004b 13       		.uleb128 0x13
 1886 004c 38       		.uleb128 0x38
 1887 004d 0B       		.uleb128 0xb
 1888 004e 00       		.byte	0
 1889 004f 00       		.byte	0
 1890 0050 07       		.uleb128 0x7
 1891 0051 0D       		.uleb128 0xd
 1892 0052 00       		.byte	0
 1893 0053 03       		.uleb128 0x3
 1894 0054 08       		.uleb128 0x8
 1895 0055 3A       		.uleb128 0x3a
 1896 0056 0B       		.uleb128 0xb
 1897 0057 3B       		.uleb128 0x3b
 1898 0058 0B       		.uleb128 0xb
 1899 0059 49       		.uleb128 0x49
 1900 005a 13       		.uleb128 0x13
 1901 005b 38       		.uleb128 0x38
 1902 005c 0B       		.uleb128 0xb
 1903 005d 00       		.byte	0
 1904 005e 00       		.byte	0
 1905 005f 08       		.uleb128 0x8
 1906 0060 13       		.uleb128 0x13
GAS LISTING /tmp/ccmGtSBt.s 			page 41


 1907 0061 01       		.byte	0x1
 1908 0062 03       		.uleb128 0x3
 1909 0063 08       		.uleb128 0x8
 1910 0064 0B       		.uleb128 0xb
 1911 0065 0B       		.uleb128 0xb
 1912 0066 3A       		.uleb128 0x3a
 1913 0067 0B       		.uleb128 0xb
 1914 0068 3B       		.uleb128 0x3b
 1915 0069 0B       		.uleb128 0xb
 1916 006a 01       		.uleb128 0x1
 1917 006b 13       		.uleb128 0x13
 1918 006c 00       		.byte	0
 1919 006d 00       		.byte	0
 1920 006e 09       		.uleb128 0x9
 1921 006f 2E       		.uleb128 0x2e
 1922 0070 01       		.byte	0x1
 1923 0071 3F       		.uleb128 0x3f
 1924 0072 19       		.uleb128 0x19
 1925 0073 03       		.uleb128 0x3
 1926 0074 0E       		.uleb128 0xe
 1927 0075 3A       		.uleb128 0x3a
 1928 0076 0B       		.uleb128 0xb
 1929 0077 3B       		.uleb128 0x3b
 1930 0078 0B       		.uleb128 0xb
 1931 0079 27       		.uleb128 0x27
 1932 007a 19       		.uleb128 0x19
 1933 007b 11       		.uleb128 0x11
 1934 007c 01       		.uleb128 0x1
 1935 007d 12       		.uleb128 0x12
 1936 007e 07       		.uleb128 0x7
 1937 007f 40       		.uleb128 0x40
 1938 0080 18       		.uleb128 0x18
 1939 0081 9642     		.uleb128 0x2116
 1940 0083 19       		.uleb128 0x19
 1941 0084 01       		.uleb128 0x1
 1942 0085 13       		.uleb128 0x13
 1943 0086 00       		.byte	0
 1944 0087 00       		.byte	0
 1945 0088 0A       		.uleb128 0xa
 1946 0089 05       		.uleb128 0x5
 1947 008a 00       		.byte	0
 1948 008b 03       		.uleb128 0x3
 1949 008c 0E       		.uleb128 0xe
 1950 008d 3A       		.uleb128 0x3a
 1951 008e 0B       		.uleb128 0xb
 1952 008f 3B       		.uleb128 0x3b
 1953 0090 0B       		.uleb128 0xb
 1954 0091 49       		.uleb128 0x49
 1955 0092 13       		.uleb128 0x13
 1956 0093 02       		.uleb128 0x2
 1957 0094 18       		.uleb128 0x18
 1958 0095 00       		.byte	0
 1959 0096 00       		.byte	0
 1960 0097 0B       		.uleb128 0xb
 1961 0098 34       		.uleb128 0x34
 1962 0099 00       		.byte	0
 1963 009a 03       		.uleb128 0x3
GAS LISTING /tmp/ccmGtSBt.s 			page 42


 1964 009b 0E       		.uleb128 0xe
 1965 009c 3A       		.uleb128 0x3a
 1966 009d 0B       		.uleb128 0xb
 1967 009e 3B       		.uleb128 0x3b
 1968 009f 0B       		.uleb128 0xb
 1969 00a0 49       		.uleb128 0x49
 1970 00a1 13       		.uleb128 0x13
 1971 00a2 02       		.uleb128 0x2
 1972 00a3 18       		.uleb128 0x18
 1973 00a4 00       		.byte	0
 1974 00a5 00       		.byte	0
 1975 00a6 0C       		.uleb128 0xc
 1976 00a7 2E       		.uleb128 0x2e
 1977 00a8 01       		.byte	0x1
 1978 00a9 3F       		.uleb128 0x3f
 1979 00aa 19       		.uleb128 0x19
 1980 00ab 03       		.uleb128 0x3
 1981 00ac 08       		.uleb128 0x8
 1982 00ad 3A       		.uleb128 0x3a
 1983 00ae 0B       		.uleb128 0xb
 1984 00af 3B       		.uleb128 0x3b
 1985 00b0 0B       		.uleb128 0xb
 1986 00b1 27       		.uleb128 0x27
 1987 00b2 19       		.uleb128 0x19
 1988 00b3 11       		.uleb128 0x11
 1989 00b4 01       		.uleb128 0x1
 1990 00b5 12       		.uleb128 0x12
 1991 00b6 07       		.uleb128 0x7
 1992 00b7 40       		.uleb128 0x40
 1993 00b8 18       		.uleb128 0x18
 1994 00b9 9642     		.uleb128 0x2116
 1995 00bb 19       		.uleb128 0x19
 1996 00bc 01       		.uleb128 0x1
 1997 00bd 13       		.uleb128 0x13
 1998 00be 00       		.byte	0
 1999 00bf 00       		.byte	0
 2000 00c0 0D       		.uleb128 0xd
 2001 00c1 34       		.uleb128 0x34
 2002 00c2 00       		.byte	0
 2003 00c3 03       		.uleb128 0x3
 2004 00c4 08       		.uleb128 0x8
 2005 00c5 3A       		.uleb128 0x3a
 2006 00c6 0B       		.uleb128 0xb
 2007 00c7 3B       		.uleb128 0x3b
 2008 00c8 0B       		.uleb128 0xb
 2009 00c9 49       		.uleb128 0x49
 2010 00ca 13       		.uleb128 0x13
 2011 00cb 02       		.uleb128 0x2
 2012 00cc 18       		.uleb128 0x18
 2013 00cd 00       		.byte	0
 2014 00ce 00       		.byte	0
 2015 00cf 0E       		.uleb128 0xe
 2016 00d0 2E       		.uleb128 0x2e
 2017 00d1 01       		.byte	0x1
 2018 00d2 3F       		.uleb128 0x3f
 2019 00d3 19       		.uleb128 0x19
 2020 00d4 03       		.uleb128 0x3
GAS LISTING /tmp/ccmGtSBt.s 			page 43


 2021 00d5 0E       		.uleb128 0xe
 2022 00d6 3A       		.uleb128 0x3a
 2023 00d7 0B       		.uleb128 0xb
 2024 00d8 3B       		.uleb128 0x3b
 2025 00d9 0B       		.uleb128 0xb
 2026 00da 27       		.uleb128 0x27
 2027 00db 19       		.uleb128 0x19
 2028 00dc 11       		.uleb128 0x11
 2029 00dd 01       		.uleb128 0x1
 2030 00de 12       		.uleb128 0x12
 2031 00df 07       		.uleb128 0x7
 2032 00e0 40       		.uleb128 0x40
 2033 00e1 18       		.uleb128 0x18
 2034 00e2 9742     		.uleb128 0x2117
 2035 00e4 19       		.uleb128 0x19
 2036 00e5 01       		.uleb128 0x1
 2037 00e6 13       		.uleb128 0x13
 2038 00e7 00       		.byte	0
 2039 00e8 00       		.byte	0
 2040 00e9 0F       		.uleb128 0xf
 2041 00ea 2E       		.uleb128 0x2e
 2042 00eb 01       		.byte	0x1
 2043 00ec 3F       		.uleb128 0x3f
 2044 00ed 19       		.uleb128 0x19
 2045 00ee 03       		.uleb128 0x3
 2046 00ef 0E       		.uleb128 0xe
 2047 00f0 3A       		.uleb128 0x3a
 2048 00f1 0B       		.uleb128 0xb
 2049 00f2 3B       		.uleb128 0x3b
 2050 00f3 0B       		.uleb128 0xb
 2051 00f4 27       		.uleb128 0x27
 2052 00f5 19       		.uleb128 0x19
 2053 00f6 49       		.uleb128 0x49
 2054 00f7 13       		.uleb128 0x13
 2055 00f8 11       		.uleb128 0x11
 2056 00f9 01       		.uleb128 0x1
 2057 00fa 12       		.uleb128 0x12
 2058 00fb 07       		.uleb128 0x7
 2059 00fc 40       		.uleb128 0x40
 2060 00fd 18       		.uleb128 0x18
 2061 00fe 9742     		.uleb128 0x2117
 2062 0100 19       		.uleb128 0x19
 2063 0101 01       		.uleb128 0x1
 2064 0102 13       		.uleb128 0x13
 2065 0103 00       		.byte	0
 2066 0104 00       		.byte	0
 2067 0105 10       		.uleb128 0x10
 2068 0106 2E       		.uleb128 0x2e
 2069 0107 01       		.byte	0x1
 2070 0108 3F       		.uleb128 0x3f
 2071 0109 19       		.uleb128 0x19
 2072 010a 03       		.uleb128 0x3
 2073 010b 0E       		.uleb128 0xe
 2074 010c 3A       		.uleb128 0x3a
 2075 010d 0B       		.uleb128 0xb
 2076 010e 3B       		.uleb128 0x3b
 2077 010f 0B       		.uleb128 0xb
GAS LISTING /tmp/ccmGtSBt.s 			page 44


 2078 0110 27       		.uleb128 0x27
 2079 0111 19       		.uleb128 0x19
 2080 0112 49       		.uleb128 0x49
 2081 0113 13       		.uleb128 0x13
 2082 0114 11       		.uleb128 0x11
 2083 0115 01       		.uleb128 0x1
 2084 0116 12       		.uleb128 0x12
 2085 0117 07       		.uleb128 0x7
 2086 0118 40       		.uleb128 0x40
 2087 0119 18       		.uleb128 0x18
 2088 011a 9642     		.uleb128 0x2116
 2089 011c 19       		.uleb128 0x19
 2090 011d 01       		.uleb128 0x1
 2091 011e 13       		.uleb128 0x13
 2092 011f 00       		.byte	0
 2093 0120 00       		.byte	0
 2094 0121 11       		.uleb128 0x11
 2095 0122 34       		.uleb128 0x34
 2096 0123 00       		.byte	0
 2097 0124 03       		.uleb128 0x3
 2098 0125 0E       		.uleb128 0xe
 2099 0126 3A       		.uleb128 0x3a
 2100 0127 0B       		.uleb128 0xb
 2101 0128 3B       		.uleb128 0x3b
 2102 0129 0B       		.uleb128 0xb
 2103 012a 49       		.uleb128 0x49
 2104 012b 13       		.uleb128 0x13
 2105 012c 3F       		.uleb128 0x3f
 2106 012d 19       		.uleb128 0x19
 2107 012e 3C       		.uleb128 0x3c
 2108 012f 19       		.uleb128 0x19
 2109 0130 00       		.byte	0
 2110 0131 00       		.byte	0
 2111 0132 00       		.byte	0
 2112              		.section	.debug_aranges,"",@progbits
 2113 0000 2C000000 		.long	0x2c
 2114 0004 0200     		.value	0x2
 2115 0006 00000000 		.long	.Ldebug_info0
 2116 000a 08       		.byte	0x8
 2117 000b 00       		.byte	0
 2118 000c 0000     		.value	0
 2119 000e 0000     		.value	0
 2120 0010 00000000 		.quad	.Ltext0
 2120      00000000 
 2121 0018 270B0000 		.quad	.Letext0-.Ltext0
 2121      00000000 
 2122 0020 00000000 		.quad	0
 2122      00000000 
 2123 0028 00000000 		.quad	0
 2123      00000000 
 2124              		.section	.debug_line,"",@progbits
 2125              	.Ldebug_line0:
 2126 0000 35020000 		.section	.debug_str,"MS",@progbits,1
 2126      02006B00 
 2126      00000101 
 2126      FB0E0D00 
 2126      01010101 
GAS LISTING /tmp/ccmGtSBt.s 			page 45


 2127              	.LASF15:
 2128 0000 70726F78 		.string	"proxcircle"
 2128      63697263 
 2128      6C6500
 2129              	.LASF18:
 2130 000b 70697865 		.string	"pixel"
 2130      6C00
 2131              	.LASF36:
 2132 0011 636F6F72 		.string	"coordenadas_size"
 2132      64656E61 
 2132      6461735F 
 2132      73697A65 
 2132      00
 2133              	.LASF5:
 2134 0022 73686F72 		.string	"short int"
 2134      7420696E 
 2134      7400
 2135              	.LASF7:
 2136 002c 73697A65 		.string	"sizetype"
 2136      74797065 
 2136      00
 2137              	.LASF61:
 2138 0035 7072696E 		.string	"print_ballcoord"
 2138      745F6261 
 2138      6C6C636F 
 2138      6F726400 
 2139              	.LASF24:
 2140 0045 696A5F63 		.string	"ij_cb"
 2140      6200
 2141              	.LASF28:
 2142 004b 696A5F63 		.string	"ij_cr"
 2142      7200
 2143              	.LASF17:
 2144 0051 70726F78 		.string	"prox_team"
 2144      5F746561 
 2144      6D00
 2145              	.LASF65:
 2146 005b 474E5520 		.string	"GNU C 4.9.3 -mtune=generic -march=x86-64 -ggdb -O0 -fstack-protector-strong"
 2146      4320342E 
 2146      392E3320 
 2146      2D6D7475 
 2146      6E653D67 
 2147              	.LASF14:
 2148 00a7 63697263 		.string	"circle"
 2148      6C6500
 2149              	.LASF67:
 2150 00ae 2F686F6D 		.string	"/home/spvk/Desktop/projeto_robotica/introducao_robotica/master"
 2150      652F7370 
 2150      766B2F44 
 2150      65736B74 
 2150      6F702F70 
 2151              	.LASF32:
 2152 00ed 666C6F61 		.string	"float"
 2152      7400
 2153              	.LASF9:
 2154 00f3 6C6F6E67 		.string	"long long int"
 2154      206C6F6E 
GAS LISTING /tmp/ccmGtSBt.s 			page 46


 2154      6720696E 
 2154      7400
 2155              	.LASF35:
 2156 0101 72656769 		.string	"regiao"
 2156      616F00
 2157              	.LASF68:
 2158 0108 6C696D69 		.string	"limiar"
 2158      617200
 2159              	.LASF43:
 2160 010f 74687265 		.string	"threshold"
 2160      73686F6C 
 2160      6400
 2161              	.LASF59:
 2162 0119 6A706766 		.string	"jpgfile"
 2162      696C6500 
 2163              	.LASF6:
 2164 0121 6C6F6E67 		.string	"long int"
 2164      20696E74 
 2164      00
 2165              	.LASF63:
 2166 012a 6E626F6C 		.string	"nbolinhas"
 2166      696E6861 
 2166      7300
 2167              	.LASF34:
 2168 0134 636F6F72 		.string	"coordenadas"
 2168      64656E61 
 2168      64617300 
 2169              	.LASF41:
 2170 0140 626C6F63 		.string	"block"
 2170      6B00
 2171              	.LASF44:
 2172 0146 70726F74 		.string	"prototipo"
 2172      6F746970 
 2172      6F00
 2173              	.LASF19:
 2174 0150 626C6F63 		.string	"bloco"
 2174      6F00
 2175              	.LASF66:
 2176 0156 2E2F7064 		.string	"./pdi/source/escrita.c"
 2176      692F736F 
 2176      75726365 
 2176      2F657363 
 2176      72697461 
 2177              	.LASF12:
 2178 016d 67726164 		.string	"grad"
 2178      00
 2179              	.LASF48:
 2180 0172 7465616D 		.string	"team1"
 2180      3100
 2181              	.LASF49:
 2182 0178 7465616D 		.string	"team2"
 2182      3200
 2183              	.LASF62:
 2184 017e 626F6C69 		.string	"bolinhas"
 2184      6E686173 
 2184      00
 2185              	.LASF1:
GAS LISTING /tmp/ccmGtSBt.s 			page 47


 2186 0187 756E7369 		.string	"unsigned char"
 2186      676E6564 
 2186      20636861 
 2186      7200
 2187              	.LASF20:
 2188 0195 696A5F6C 		.string	"ij_luma"
 2188      756D6100 
 2189              	.LASF37:
 2190 019d 636F6F72 		.string	"coord"
 2190      6400
 2191              	.LASF47:
 2192 01a3 67656E65 		.string	"generate_teams"
 2192      72617465 
 2192      5F746561 
 2192      6D7300
 2193              	.LASF4:
 2194 01b2 7369676E 		.string	"signed char"
 2194      65642063 
 2194      68617200 
 2195              	.LASF56:
 2196 01be 6572726F 		.string	"erro"
 2196      00
 2197              	.LASF10:
 2198 01c3 6C6F6E67 		.string	"long long unsigned int"
 2198      206C6F6E 
 2198      6720756E 
 2198      7369676E 
 2198      65642069 
 2199              	.LASF3:
 2200 01da 756E7369 		.string	"unsigned int"
 2200      676E6564 
 2200      20696E74 
 2200      00
 2201              	.LASF52:
 2202 01e7 6E70726F 		.string	"nprox"
 2202      7800
 2203              	.LASF26:
 2204 01ed 69316A5F 		.string	"i1j_cb"
 2204      636200
 2205              	.LASF50:
 2206 01f4 67656E65 		.string	"generate_prox_teams"
 2206      72617465 
 2206      5F70726F 
 2206      785F7465 
 2206      616D7300 
 2207              	.LASF42:
 2208 0208 61727175 		.string	"arquivo"
 2208      69766F00 
 2209              	.LASF11:
 2210 0210 6C756D61 		.string	"luma"
 2210      00
 2211              	.LASF13:
 2212 0215 70726F78 		.string	"prox"
 2212      00
 2213              	.LASF51:
 2214 021a 73687269 		.string	"shrink_teams"
 2214      6E6B5F74 
GAS LISTING /tmp/ccmGtSBt.s 			page 48


 2214      65616D73 
 2214      00
 2215              	.LASF8:
 2216 0227 63686172 		.string	"char"
 2216      00
 2217              	.LASF23:
 2218 022c 69316A31 		.string	"i1j1_luma"
 2218      5F6C756D 
 2218      6100
 2219              	.LASF30:
 2220 0236 69316A5F 		.string	"i1j_cr"
 2220      637200
 2221              	.LASF2:
 2222 023d 73686F72 		.string	"short unsigned int"
 2222      7420756E 
 2222      7369676E 
 2222      65642069 
 2222      6E7400
 2223              	.LASF21:
 2224 0250 696A315F 		.string	"ij1_luma"
 2224      6C756D61 
 2224      00
 2225              	.LASF53:
 2226 0259 7377656C 		.string	"swell_teams"
 2226      6C5F7465 
 2226      616D7300 
 2227              	.LASF45:
 2228 0265 70697874 		.string	"pixteam1"
 2228      65616D31 
 2228      00
 2229              	.LASF46:
 2230 026e 70697874 		.string	"pixteam2"
 2230      65616D32 
 2230      00
 2231              	.LASF0:
 2232 0277 6C6F6E67 		.string	"long unsigned int"
 2232      20756E73 
 2232      69676E65 
 2232      6420696E 
 2232      7400
 2233              	.LASF33:
 2234 0289 646F7562 		.string	"double"
 2234      6C6500
 2235              	.LASF38:
 2236 0290 73697A65 		.string	"size"
 2236      00
 2237              	.LASF25:
 2238 0295 696A315F 		.string	"ij1_cb"
 2238      636200
 2239              	.LASF55:
 2240 029c 636F6D70 		.string	"compare"
 2240      61726500 
 2241              	.LASF27:
 2242 02a4 69316A31 		.string	"i1j1_cb"
 2242      5F636200 
 2243              	.LASF29:
 2244 02ac 696A315F 		.string	"ij1_cr"
GAS LISTING /tmp/ccmGtSBt.s 			page 49


 2244      637200
 2245              	.LASF22:
 2246 02b3 69316A5F 		.string	"i1j_luma"
 2246      6C756D61 
 2246      00
 2247              	.LASF16:
 2248 02bc 7465616D 		.string	"team"
 2248      00
 2249              	.LASF54:
 2250 02c1 6F726967 		.string	"original"
 2250      696E616C 
 2250      00
 2251              	.LASF31:
 2252 02ca 69316A31 		.string	"i1j1_cr"
 2252      5F637200 
 2253              	.LASF39:
 2254 02d2 6D617472 		.string	"matriz"
 2254      697A00
 2255              	.LASF64:
 2256 02d9 68617368 		.string	"hashtag"
 2256      74616700 
 2257              	.LASF58:
 2258 02e1 6D617472 		.string	"matriz_temp"
 2258      697A5F74 
 2258      656D7000 
 2259              	.LASF40:
 2260 02ed 6D617061 		.string	"mapa"
 2260      00
 2261              	.LASF57:
 2262 02f2 65736372 		.string	"escrita"
 2262      69746100 
 2263              	.LASF60:
 2264 02fa 7069785F 		.string	"pix_erro"
 2264      6572726F 
 2264      00
 2265              		.ident	"GCC: (Gentoo 4.9.3 p1.5, pie-0.6.4) 4.9.3"
 2266              		.section	.note.GNU-stack,"",@progbits
GAS LISTING /tmp/ccmGtSBt.s 			page 50


DEFINED SYMBOLS
                            *ABS*:0000000000000000 escrita.c
     /tmp/ccmGtSBt.s:10     .text:0000000000000000 threshold
     /tmp/ccmGtSBt.s:71     .text:0000000000000095 AI
     /tmp/ccmGtSBt.s:754    .text:0000000000000763 escrita
     /tmp/ccmGtSBt.s:116    .text:00000000000000e6 generate_teams
     /tmp/ccmGtSBt.s:685    .text:00000000000006ef pix_erro
     /tmp/ccmGtSBt.s:424    .text:000000000000048b generate_prox_teams
     /tmp/ccmGtSBt.s:541    .text:00000000000005ad shrink_teams
     /tmp/ccmGtSBt.s:613    .text:000000000000064e swell_teams
     /tmp/ccmGtSBt.s:806    .text:00000000000007d7 print_ballcoord

UNDEFINED SYMBOLS
limiar
malloc
alocate
dealocate
printf
detect_regiaoteam
lumcbcr_medium
open
perror
exit
write
close
detect_regiao
generate_hashtag
free
